
bin/de1_boot.or32:     file format elf32-or32
bin/de1_boot.or32
architecture: or32, flags 0x00000112:
EXEC_P, HAS_SYMS, D_PAGED
start address 0x00400028

Program Header:
    LOAD off    0x00002000 vaddr 0x00400000 paddr 0x00400000 align 2**13
         filesz 0x0001a34c memsz 0x00021cc0 flags rwx

Sections:
Idx Name          Size      VMA       LMA       File off  Algn
  0 .vectors      00000028  00400000  00400000  00002000  2**0
                  CONTENTS, ALLOC, LOAD, READONLY, CODE
  1 .text         00016ce0  00400028  00400028  00002028  2**2
                  CONTENTS, ALLOC, LOAD, READONLY, CODE
  2 .rodata       00002e34  00416d08  00416d08  00018d08  2**2
                  CONTENTS, ALLOC, LOAD, READONLY, DATA
  3 .data         00000810  00419b3c  00419b3c  0001bb3c  2**2
                  CONTENTS, ALLOC, LOAD, DATA
  4 .bss          00006974  0041a34c  0041a34c  0001c34c  2**2
                  ALLOC
  5 .stack        00001000  00420cc0  00420cc0  0001c34c  2**0
                  ALLOC
  6 .debug_abbrev 00000624  00000000  00000000  0001c34c  2**0
                  CONTENTS, READONLY, DEBUGGING
  7 .debug_info   0000784e  00000000  00000000  0001c970  2**0
                  CONTENTS, READONLY, DEBUGGING
  8 .debug_line   0000c995  00000000  00000000  000241be  2**0
                  CONTENTS, READONLY, DEBUGGING
  9 .debug_frame  00000a14  00000000  00000000  00030b54  2**2
                  CONTENTS, READONLY, DEBUGGING
 10 .debug_loc    0000748a  00000000  00000000  00031568  2**0
                  CONTENTS, READONLY, DEBUGGING
 11 .debug_pubnames 0000001b  00000000  00000000  000389f2  2**0
                  CONTENTS, READONLY, DEBUGGING
 12 .debug_pubtypes 00000639  00000000  00000000  00038a0d  2**0
                  CONTENTS, READONLY, DEBUGGING
 13 .debug_aranges 00000020  00000000  00000000  00039046  2**0
                  CONTENTS, READONLY, DEBUGGING
 14 .debug_ranges 00000a10  00000000  00000000  00039066  2**0
                  CONTENTS, READONLY, DEBUGGING
 15 .debug_str    00001c9a  00000000  00000000  00039a76  2**0
                  CONTENTS, READONLY, DEBUGGING
 16 .comment      00000051  00000000  00000000  0003b710  2**0
                  CONTENTS, READONLY
SYMBOL TABLE:
00400000 l    d  .vectors	00000000 .vectors
00400028 l    d  .text	00000000 .text
00416d08 l    d  .rodata	00000000 .rodata
00419b3c l    d  .data	00000000 .data
0041a34c l    d  .bss	00000000 .bss
00420cc0 l    d  .stack	00000000 .stack
00000000 l    d  .debug_abbrev	00000000 .debug_abbrev
00000000 l    d  .debug_info	00000000 .debug_info
00000000 l    d  .debug_line	00000000 .debug_line
00000000 l    d  .debug_frame	00000000 .debug_frame
00000000 l    d  .debug_loc	00000000 .debug_loc
00000000 l    d  .debug_pubnames	00000000 .debug_pubnames
00000000 l    d  .debug_pubtypes	00000000 .debug_pubtypes
00000000 l    d  .debug_aranges	00000000 .debug_aranges
00000000 l    d  .debug_ranges	00000000 .debug_ranges
00000000 l    d  .debug_str	00000000 .debug_str
00000000 l    d  .comment	00000000 .comment
00421cc0 l       .stack	00000000 _stack
00400004 l       .vectors	00000000 _reset
00400004 l       .vectors	00000000 real_reset
0040003c l       .text	00000000 bss_init_start
00400058 l       .text	00000000 bss_init_end
00000000 l    df *ABS*	00000000 memcmp.c
00400280 l     F .text	00000030 memcpy
004002b0 l     F .text	0000001c tolower
004002cc l     F .text	00000028 strcpy
004002f4 l     F .text	00000020 strlen
00400314 l     F .text	00000058 strncmp
0040036c l     F .text	0000006c strncpy
004003d8 l     F .text	00000b50 vsnprintf
00417734 l     O .rodata	00000011 lcdigits.16665
00417720 l     O .rodata	00000011 ucdigits.16666
00400f28 l     F .text	00000018 GetTimer
00400f40 l     F .text	0000001c CheckTimer
00400f5c l     F .text	00000990 BootUploadLogo
004095a4 l     F .text	00000044 RAOpen
004056a4 l     F .text	00000164 RARead
0041a4dc l     O .bss	00000400 sector_buffer.20952
004018ec l     F .text	00000408 BootUploadBall
00401cf4 l     F .text	00000f08 BootUploadCopper
00402bfc l     F .text	0000003c SwapEndianL
00402c38 l     F .text	00000054 SwapPartitionBytes
0041a498 l     O .bss	00000040 partitions.20931
00402c8c l     F .text	00000040 lfn_checksum
00402ccc l     F .text	00000154 CompareDirEntries
00402e20 l     F .text	00000020 ChangeDirectory
0041a354 l     O .bss	00000004 iCurrentDirectory.26227
0041a358 l     O .bss	00000004 iPreviousDirectory.26228
00402e40 l     F .text	00000068 GetFPGAStatus
00402ea8 l     F .text	000000d8 WriteTaskFile
00402f80 l     F .text	00000068 WriteStatus
00402fe8 l     F .text	000000b0 BuildHardfileIndex
0040533c l     F .text	0000020c FileSeek
00403098 l     F .text	000000a4 HardFileSeek
0041a8e0 l     O .bss	00000004 cluster_mask.20954
0041a351 l     O .bss	00000001 fat32.20955
0040313c l     F .text	0000006c DebugMessage
00420a64 l     O .bss	00000001 debugptr.39718
00420a68 l     O .bss	00000101 debuglines.39717
004031a8 l     F .text	00000078 RDBChecksum.33881
00403220 l     F .text	00000068 MMC_CRC
0041fd5c l     O .bss	00000001 crc.42301
00403288 l     F .text	0000012c MMC_Command
0041fd64 l     O .bss	00000001 response.42303
004033b4 l     F .text	0000003c quickrand.44673
00420a60 l     O .bss	00000004 prev.44675
004033f0 l     F .text	0000020c OsdSetTitle
00420a5c l     O .bss	00000004 arrow.44692
00419b3c l     O .data	00000800 charfont.44463
00420a1c l     O .bss	00000040 titlebuffer.44693
004035fc l     F .text	000007f4 OsdWriteOffset
00403df0 l     F .text	00000018 OsdWrite
00403e08 l     F .text	00000040 OsdEnable
00403e48 l     F .text	0000012c InfoMessage
0041a389 l     O .bss	00000001 menustate.39675
0041fd28 l     O .bss	00000004 menu_timer.39679
00403f74 l     F .text	00000048 OsdDisable
00403fbc l     F .text	00000054 ConfigVideo
00404010 l     F .text	00000038 ConfigMemory
00404048 l     F .text	0000003c ConfigCPU
00404084 l     F .text	00000038 ConfigChipset
004040bc l     F .text	00000044 ConfigFloppy
00404100 l     F .text	00000070 ConfigIDE
00404170 l     F .text	0000014c OsdGetCtrl
00420a14 l     O .bss	00000004 delay.44890
00420a18 l     O .bss	00000001 c2.44889
00420a10 l     O .bss	00000004 repeat.44891
00420a0c l     O .bss	00000001 repeat2.44892
00417384 l     O .rodata	00000080 keycode_table.44651
004042bc l     F .text	00000040 ScrollReset
00420a04 l     O .bss	00000004 scroll_timer.44690
00420a08 l     O .bss	00000004 scroll_offset.44689
004042fc l     F .text	00000128 scani
00404424 l     F .text	00000060 next_word
00404484 l     F .text	00000028 sprintf
004044ac l     F .text	00000194 ErrorMessage
0041cd18 l     O .bss	00000028 s.23738
00404640 l     F .text	00000054 SetConfigurationFilename
0041cd40 l     O .bss	0000000c configfilename.23739
00404694 l     F .text	00000068 printf
0041a398 l     O .bss	00000100 buf.5054
004046fc l     F .text	000001d8 MMC_Write
0041fd65 l     O .bss	00000001 CardType.42304
0041fd60 l     O .bss	00000004 timeout.42302
004048d4 l     F .text	00000088 FileWrite
0041dc8c l     O .bss	00000004 data_start.26208
0041a8dc l     O .bss	00000001 cluster_size.20953
0040495c l     F .text	00000320 MMC_ReadMultiple
00404c7c l     F .text	00000104 FileReadEx
00404d80 l     F .text	0000034c GetHardfileGeometry
00417404 l     O .rodata	00000010 C.834.54175
0041a8e8 l     O .bss	00000010 CSDData.22208
004050cc l     F .text	000001e8 MMC_Read
004052b4 l     F .text	00000088 FileRead
0041dca4 l     O .bss	00000200 fat_buffer.26220
0041dea4 l     O .bss	00000004 buffered_fat_index.26221
0041dc88 l     O .bss	00000004 fat_start.26207
00405548 l     F .text	0000015c FileNextSector
00405808 l     F .text	00000114 GetFATLink
0040591c l     F .text	000004bc MMC_Init
00405dd8 l     F .text	00000314 OpenHardfile
0041ccac l     O .bss	0000006c config.22631
0041a8f8 l     O .bss	00002288 hdf.22483
004092d0 l     F .text	000002d4 FileOpen
004060ec l     F .text	00000028 BootPrint
00406114 l     F .text	0000003c bprintfl
00406150 l     F .text	00000c18 WriteTrack
0041cb80 l     O .bss	0000012c file.22630
0041a8e4 l     O .bss	00000001 Error.22104
00406d68 l     F .text	00000134 FindSync
00406e9c l     F .text	000001ec UpdateEntry
00407088 l     F .text	00000548 FileCreate
0041dc90 l     O .bss	00000004 root_directory_cluster.26209
0041dc94 l     O .bss	00000004 root_directory_start.26210
0041dc98 l     O .bss	00000004 root_directory_size.26211
0041dca0 l     O .bss	00000004 fat_size.26216
0041dc9c l     O .bss	00000001 fat_number.26212
004075d0 l     F .text	00001c44 ScanDirectory
00420bb8 l     O .bss	00000105 lfn.26344
0041a352 l     O .bss	00000001 nDirEntries.26225
0041a353 l     O .bss	00000001 iSelectedEntry.26226
0041e7d0 l     O .bss	00000008 sort_table.26224
0041e6d0 l     O .bss	00000100 DirEntry.26223
0041dea8 l     O .bss	00000828 DirEntryLFN.26222
0041f100 l     O .bss	00000008 t_sort_table.26231
0041f000 l     O .bss	00000100 t_DirEntry.26230
0041e7d8 l     O .bss	00000828 t_DirEntryLFN.26229
00409214 l     F .text	000000bc SelectFile
0041a394 l     O .bss	00000004 fs_pFileExt.39713
0041fd59 l     O .bss	00000001 fs_Options.39714
0041fd5a l     O .bss	00000001 fs_MenuSelect.39715
0041fd5b l     O .bss	00000001 fs_MenuCancel.39716
004095e8 l     F .text	00000790 FindDrive
0041dc84 l     O .bss	00000004 boot_sector.26206
0041a4d8 l     O .bss	00000004 partitioncount.20932
0041dc80 l     O .bss	00000001 fattype.26204
0041dc9e l     O .bss	00000002 dir_entries.26215
00409d78 l     F .text	00000838 UploadKickstart
0041cd4c l     O .bss	00000c00 romkey.23741
0041d94c l     O .bss	00000334 romfile.23742
0040a5b0 l     F .text	000002f8 BootPrintEx
0041a348 l     O .data	00000004 adr.21086
00417420 l     O .rodata	00000300 boot_font.21009
0040a8a8 l     F .text	0000008c FatalError
0040a934 l     F .text	00000064 OsdReset.clone.0
0040a998 l     F .text	0000186c HandleHDD.clone.1
0041a350 l     O .bss	00000001 DebugMode.22632
0041a360 l     O .bss	00000028 debugmsg2.22482
0040c204 l     F .text	0000018c HandleFpga
0041a388 l     O .bss	00000001 led.36871
0041a35c l     O .bss	00000001 drives.28702
0041f108 l     O .bss	00000af0 df.28704
0040e464 l     F .text	0000058c ReadTrack
0040c390 l     F .text	0000008c txbuf_emit.50045.clone.2
004209c0 l     O .bss	00000001 txln.50009
004209b8 l     O .bss	00000008 txbuf.50002
004209b4 l     O .bss	00000001 txrp.50007
0040c41c l     F .text	0000008c txbuf_put.50049
004209b5 l     O .bss	00000001 txwp.50005
0040c4a8 l     F .text	00000040 txbuf_puts.50053
0040c4e8 l     F .text	00000040 mon_illcmd.50060
00420971 l     O .bss	00000001 rxwp.50006
0040c528 l     F .text	0000091c HandleSerial
00420968 l     O .bss	00000004 mon_en.50011
00420974 l     O .bss	00000040 rxbuf.50003
00420970 l     O .bss	00000001 rxrp.50008
0042096c l     O .bss	00000004 mon_step.50012
004209c4 l     O .bss	00000040 stbuf.50004
0041a34c l     O .bss	00000004 rstval.5034
0040ce44 l     F .text	00000040 strcat.clone.3
0040ce84 l     F .text	0000006c strncat.clone.4
0040cef0 l     F .text	0000021c BootClearScreen.clone.5
0040d10c l     F .text	00000030 ConfigurationExists.clone.6
0040d13c l     F .text	00001328 LoadConfiguration.clone.7
00417414 l     O .rodata	00000009 config_id.23835
00416e7c l     O .rodata	00000010 config_memory_chip_msg.22574
00416e8c l     O .rodata	00000010 config_memory_slow_msg.22575
00416ea8 l     O .rodata	00000010 config_memory_fast_msg.22576
0040e9f0 l     F .text	00000144 GetHDFFileType.clone.10
0041fbf8 l     O .bss	0000012c rdbfile.34114
0040eb34 l     F .text	00000310 OsdDrawLogo.clone.11
00416f14 l     O .rodata	0000046f logodata.44464
00420168 l     O .bss	00000800 framebuffer.44658
0040ee44 l     F .text	00000404 ScrollText
00420b7d l     O .bss	00000001 ctrl.39751
00420b7c l     O .bss	00000001 lalt.39752
0041a390 l     O .bss	00000001 config_autofire.39712
00416f04 l     O .rodata	00000010 config_autofire_msg.39703
00420b74 l     O .bss	00000004 helptext.39755
00420b70 l     O .bss	00000001 helpstate.39756
0041a38a l     O .bss	00000001 menusub.39677
0041a38c l     O .bss	00000004 menumask.39678
00420b78 l     O .bss	00000004 helptext_timer.39754
0041fd24 l     O .bss	00000001 parentstate.39676
00420b80 l     O .bss	00000038 t_hardfile.39750
0041fd54 l     O .bss	00000005 DiskInfo.39693
0041fd68 l     O .bss	00000400 stars.44657
0041fd2c l     O .bss	00000028 DirEntryInfo.39692
0041a340 l     O .data	00000006 info.39856
0041a33c l     O .data	00000004 template.39857
00420b6c l     O .bss	00000004 len.39848
00416eb8 l     O .rodata	00000010 config_cpu_msg.39700
00416ee4 l     O .rodata	00000020 config_chipset_msg.39702
00416ec8 l     O .rodata	0000001c config_hdf_msg.39701
00416e6c l     O .rodata	00000010 config_filter_msg.22573
00416e9c l     O .rodata	0000000c config_scanlines_msg.39698
00400000 g       *ABS*	00000000 __ram_start
004000a4 g       .text	00000000 __udivsi3
0047effc g       *ABS*	00000000 _heap_end
00420cc0 g       .bss	00000000 __bss_end
00419b3c g       *ABS*	00000000 __data_ram
00400208 g       .text	00000000 __umodsi3
00080000 g       *ABS*	00000000 __ram_length
0001a34c g       *ABS*	00000000 __rom_size
0041a34c g       .data	00000000 __data_end
00400068 g       .text	00000000 __mulsi3
0041a34c g       .bss	00000000 __bss_start
0040f248 g     F .text	00007ac0 main
004001a0 g       .text	00000000 __divsi3
0047fffc g       *ABS*	00000000 __stack
00400228 g       .text	00000000 __modsi3
00419b3c g       .data	00000000 __data_start



Disassembly of section .vectors:

00400000 <_reset-0x4>:
  400000:	00 01 a3 4c 	l.j 468d30 <_stack+0x47070>

00400004 <_reset>:
  400004:	15 00 00 01 	l.nop 0x1
  400008:	15 00 00 02 	l.nop 0x2
  40000c:	15 00 00 03 	l.nop 0x3
  400010:	15 00 00 04 	l.nop 0x4
  400014:	18 00 00 00 	l.movhi r0,0x0
  400018:	9c 60 00 01 	l.addi r3,r0,0x1
  40001c:	c0 00 18 11 	l.mtspr r0,r3,0x11
  400020:	18 20 00 47 	l.movhi r1,0x47
  400024:	a8 21 ff fc 	l.ori r1,r1,0xfffc

Disassembly of section .text:

00400028 <bss_init_start-0x14>:
  400028:	15 00 00 00 	l.nop 0x0
  40002c:	18 40 00 41 	l.movhi r2,0x41
  400030:	a8 42 a3 4c 	l.ori r2,r2,0xa34c
  400034:	18 60 00 42 	l.movhi r3,0x42
  400038:	a8 63 0c c0 	l.ori r3,r3,0xcc0

0040003c <bss_init_start>:
  40003c:	e4 62 18 00 	l.sfgeu r2,r3
  400040:	10 00 00 06 	l.bf 400058 <bss_init_end>
  400044:	15 00 00 00 	l.nop 0x0
  400048:	d4 02 00 00 	l.sw 0x0(r2),r0
  40004c:	9c 42 00 04 	l.addi r2,r2,0x4
  400050:	0f ff ff fb 	l.bnf 40003c <bss_init_start>
  400054:	15 00 00 00 	l.nop 0x0

00400058 <bss_init_end>:
  400058:	18 60 00 40 	l.movhi r3,0x40
  40005c:	a8 63 f2 48 	l.ori r3,r3,0xf248
  400060:	44 00 18 00 	l.jr r3
  400064:	15 00 00 00 	l.nop 0x0

00400068 <__mulsi3>:
  400068:	9d 60 00 00 	l.addi r11,r0,0x0
  40006c:	e4 23 58 00 	l.sfne r3,r11
  400070:	0c 00 00 0b 	l.bnf 40009c <__mulsi3+0x34>
  400074:	a8 a3 00 00 	l.ori r5,r3,0x0
  400078:	9c c0 00 00 	l.addi r6,r0,0x0
  40007c:	a4 65 00 01 	l.andi r3,r5,0x1
  400080:	e4 03 30 00 	l.sfeq r3,r6
  400084:	10 00 00 03 	l.bf 400090 <__mulsi3+0x28>
  400088:	b8 a5 00 41 	l.srli r5,r5,0x1
  40008c:	e1 6b 20 00 	l.add r11,r11,r4
  400090:	e4 25 30 00 	l.sfne r5,r6
  400094:	13 ff ff fa 	l.bf 40007c <__mulsi3+0x14>
  400098:	b8 84 00 01 	l.slli r4,r4,0x1
  40009c:	44 00 48 00 	l.jr r9
  4000a0:	15 00 00 00 	l.nop 0x0

004000a4 <__udivsi3>:
  4000a4:	9c 21 ff fc 	l.addi r1,r1,0xfffffffc
  4000a8:	d4 01 48 00 	l.sw 0x0(r1),r9
  4000ac:	9d 60 00 00 	l.addi r11,r0,0x0
  4000b0:	9d 04 00 00 	l.addi r8,r4,0x0
  4000b4:	9c a3 00 00 	l.addi r5,r3,0x0
  4000b8:	e4 28 58 00 	l.sfne r8,r11
  4000bc:	0c 00 00 36 	l.bnf 400194 <__udivsi3+0xf0>
  4000c0:	9c e0 00 00 	l.addi r7,r0,0x0
  4000c4:	e4 48 28 00 	l.sfgtu r8,r5
  4000c8:	10 00 00 32 	l.bf 400190 <__udivsi3+0xec>
  4000cc:	e4 08 28 00 	l.sfeq r8,r5
  4000d0:	10 00 00 2e 	l.bf 400188 <__udivsi3+0xe4>
  4000d4:	e4 8b 40 00 	l.sfltu r11,r8
  4000d8:	0c 00 00 0d 	l.bnf 40010c <__udivsi3+0x68>
  4000dc:	9d a0 00 20 	l.addi r13,r0,0x20
  4000e0:	19 20 80 00 	l.movhi r9,0x8000
  4000e4:	9c c0 ff ff 	l.addi r6,r0,0xffffffff
  4000e8:	e0 65 48 03 	l.and r3,r5,r9
  4000ec:	b8 87 00 01 	l.slli r4,r7,0x1
  4000f0:	9d e5 00 00 	l.addi r15,r5,0x0
  4000f4:	b8 63 00 5f 	l.srli r3,r3,0x1f
  4000f8:	e1 ad 30 00 	l.add r13,r13,r6
  4000fc:	e0 e4 18 04 	l.or r7,r4,r3
  400100:	e4 87 40 00 	l.sfltu r7,r8
  400104:	13 ff ff f9 	l.bf 4000e8 <__udivsi3+0x44>
  400108:	b8 a5 00 01 	l.slli r5,r5,0x1
  40010c:	b8 e7 00 41 	l.srli r7,r7,0x1
  400110:	9d ad 00 01 	l.addi r13,r13,0x1
  400114:	9d 20 00 00 	l.addi r9,r0,0x0
  400118:	e4 89 68 00 	l.sfltu r9,r13
  40011c:	0c 00 00 1e 	l.bnf 400194 <__udivsi3+0xf0>
  400120:	9c af 00 00 	l.addi r5,r15,0x0
  400124:	19 e0 80 00 	l.movhi r15,0x8000
  400128:	9e 20 00 00 	l.addi r17,r0,0x0
  40012c:	e0 65 78 03 	l.and r3,r5,r15
  400130:	b8 87 00 01 	l.slli r4,r7,0x1
  400134:	b8 63 00 5f 	l.srli r3,r3,0x1f
  400138:	e0 e4 18 04 	l.or r7,r4,r3
  40013c:	e0 c7 40 02 	l.sub r6,r7,r8
  400140:	e0 66 78 03 	l.and r3,r6,r15
  400144:	b8 63 00 5f 	l.srli r3,r3,0x1f
  400148:	9c 80 00 00 	l.addi r4,r0,0x0
  40014c:	e4 23 20 00 	l.sfne r3,r4
  400150:	10 00 00 03 	l.bf 40015c <__udivsi3+0xb8>
  400154:	b8 6b 00 01 	l.slli r3,r11,0x1
  400158:	9c 80 00 01 	l.addi r4,r0,0x1
  40015c:	b8 a5 00 01 	l.slli r5,r5,0x1
  400160:	e4 24 88 00 	l.sfne r4,r17
  400164:	0c 00 00 03 	l.bnf 400170 <__udivsi3+0xcc>
  400168:	e1 63 20 04 	l.or r11,r3,r4
  40016c:	9c e6 00 00 	l.addi r7,r6,0x0
  400170:	9d 29 00 01 	l.addi r9,r9,0x1
  400174:	e4 89 68 00 	l.sfltu r9,r13
  400178:	13 ff ff ed 	l.bf 40012c <__udivsi3+0x88>
  40017c:	15 00 00 00 	l.nop 0x0
  400180:	00 00 00 05 	l.j 400194 <__udivsi3+0xf0>
  400184:	15 00 00 00 	l.nop 0x0
  400188:	00 00 00 03 	l.j 400194 <__udivsi3+0xf0>
  40018c:	9d 60 00 01 	l.addi r11,r0,0x1
  400190:	9c e5 00 00 	l.addi r7,r5,0x0
  400194:	85 21 00 00 	l.lwz r9,0x0(r1)
  400198:	44 00 48 00 	l.jr r9
  40019c:	9c 21 00 04 	l.addi r1,r1,0x4

004001a0 <__divsi3>:
  4001a0:	9c 21 ff f8 	l.addi r1,r1,0xfffffff8
  4001a4:	d4 01 48 00 	l.sw 0x0(r1),r9
  4001a8:	d4 01 50 04 	l.sw 0x4(r1),r10
  4001ac:	9c a3 00 00 	l.addi r5,r3,0x0
  4001b0:	9d 40 00 00 	l.addi r10,r0,0x0
  4001b4:	e5 85 50 00 	l.sflts r5,r10
  4001b8:	0c 00 00 04 	l.bnf 4001c8 <__divsi3+0x28>
  4001bc:	9c 60 00 00 	l.addi r3,r0,0x0
  4001c0:	9d 40 00 01 	l.addi r10,r0,0x1
  4001c4:	e0 a0 28 02 	l.sub r5,r0,r5
  4001c8:	e5 84 18 00 	l.sflts r4,r3
  4001cc:	0c 00 00 04 	l.bnf 4001dc <__divsi3+0x3c>
  4001d0:	15 00 00 00 	l.nop 0x0
  4001d4:	9d 4a 00 01 	l.addi r10,r10,0x1
  4001d8:	e0 80 20 02 	l.sub r4,r0,r4
  4001dc:	07 ff ff b2 	l.jal 4000a4 <__udivsi3>
  4001e0:	9c 65 00 00 	l.addi r3,r5,0x0
  4001e4:	9c 60 00 01 	l.addi r3,r0,0x1
  4001e8:	e4 0a 18 00 	l.sfeq r10,r3
  4001ec:	0c 00 00 03 	l.bnf 4001f8 <__divsi3+0x58>
  4001f0:	15 00 00 00 	l.nop 0x0
  4001f4:	e1 60 58 02 	l.sub r11,r0,r11
  4001f8:	85 21 00 00 	l.lwz r9,0x0(r1)
  4001fc:	85 41 00 04 	l.lwz r10,0x4(r1)
  400200:	44 00 48 00 	l.jr r9
  400204:	9c 21 00 08 	l.addi r1,r1,0x8

00400208 <__umodsi3>:
  400208:	9c 21 ff fc 	l.addi r1,r1,0xfffffffc
  40020c:	d4 01 48 00 	l.sw 0x0(r1),r9
  400210:	07 ff ff a5 	l.jal 4000a4 <__udivsi3>
  400214:	15 00 00 00 	l.nop 0x0
  400218:	9d 67 00 00 	l.addi r11,r7,0x0
  40021c:	85 21 00 00 	l.lwz r9,0x0(r1)
  400220:	44 00 48 00 	l.jr r9
  400224:	9c 21 00 04 	l.addi r1,r1,0x4

00400228 <__modsi3>:
  400228:	9c 21 ff f8 	l.addi r1,r1,0xfffffff8
  40022c:	d4 01 48 00 	l.sw 0x0(r1),r9
  400230:	d4 01 50 04 	l.sw 0x4(r1),r10
  400234:	e5 83 00 00 	l.sflts r3,r0
  400238:	0c 00 00 04 	l.bnf 400248 <__modsi3+0x20>
  40023c:	9d 40 00 00 	l.addi r10,r0,0x0
  400240:	9d 40 00 01 	l.addi r10,r0,0x1
  400244:	e0 60 18 02 	l.sub r3,r0,r3
  400248:	e5 84 00 00 	l.sflts r4,r0
  40024c:	0c 00 00 03 	l.bnf 400258 <__modsi3+0x30>
  400250:	15 00 00 00 	l.nop 0x0
  400254:	e0 80 20 02 	l.sub r4,r0,r4
  400258:	07 ff ff 93 	l.jal 4000a4 <__udivsi3>
  40025c:	15 00 00 00 	l.nop 0x0
  400260:	bc 0a 00 01 	l.sfeqi r10,0x1
  400264:	0c 00 00 03 	l.bnf 400270 <__modsi3+0x48>
  400268:	9d 67 00 00 	l.addi r11,r7,0x0
  40026c:	e1 60 58 02 	l.sub r11,r0,r11
  400270:	85 21 00 00 	l.lwz r9,0x0(r1)
  400274:	85 41 00 04 	l.lwz r10,0x4(r1)
  400278:	44 00 48 00 	l.jr r9
  40027c:	9c 21 00 08 	l.addi r1,r1,0x8

00400280 <memcpy>:
	size_t nq = n >> 3;
	asm volatile ("cld ; rep ; movsq ; movl %3,%%ecx ; rep ; movsb":"+c"
		      (nq), "+S"(p), "+D"(q)
		      :"r"((uint32_t) (n & 7)));
#else
	while (n--) {
  400280:	00 00 00 07 	l.j 40029c <memcpy+0x1c>
  400284:	9c c0 00 00 	l.addi r6,r0,0x0

_BEGIN_STD_C

_PTR 	 _EXFUN(memchr,(const _PTR, int, size_t));
int 	 _EXFUN(memcmp,(const _PTR, const _PTR, size_t));
_PTR 	 _EXFUN(memcpy,(_PTR, const _PTR, size_t));
  400288:	e0 e3 30 00 	l.add r7,r3,r6
		*q++ = *p++;
  40028c:	8d 08 00 00 	l.lbz r8,0x0(r8)
  400290:	9c c6 00 01 	l.addi r6,r6,0x1
  400294:	d8 07 40 00 	l.sb 0x0(r7),r8
  400298:	9c a5 ff ff 	l.addi r5,r5,0xffffffff
	size_t nq = n >> 3;
	asm volatile ("cld ; rep ; movsq ; movl %3,%%ecx ; rep ; movsb":"+c"
		      (nq), "+S"(p), "+D"(q)
		      :"r"((uint32_t) (n & 7)));
#else
	while (n--) {
  40029c:	bc 25 00 00 	l.sfnei r5,0x0
  4002a0:	13 ff ff fa 	l.bf 400288 <memcpy+0x8>
  4002a4:	e1 04 30 00 	l.add r8,r4,r6
		*q++ = *p++;
	}
#endif

	return dst;
}
  4002a8:	44 00 48 00 	l.jr r9
  4002ac:	a9 63 00 00 	l.ori r11,r3,0x0

004002b0 <tolower>:
	return 0;
}

int tolower(int c)
{
	if((c>='A')&&(c<='Z')) {
  4002b0:	9c 83 ff bf 	l.addi r4,r3,0xffffffbf
  4002b4:	bc 44 00 19 	l.sfgtui r4,0x19
  4002b8:	10 00 00 03 	l.bf 4002c4 <tolower+0x14>
  4002bc:	15 00 00 00 	l.nop 0x0
		return c + 'a' - 'A';
  4002c0:	9c 63 00 20 	l.addi r3,r3,0x20
	} else {
		return c;
	}
}
  4002c4:	44 00 48 00 	l.jr r9
  4002c8:	a9 63 00 00 	l.ori r11,r3,0x0

004002cc <strcpy>:
 */

#include <string.h>

char *strcpy(char *dst, const char *src)
{
  4002cc:	9c a0 00 00 	l.addi r5,r0,0x0
_PTR	 _EXFUN(memset,(_PTR, int, size_t));
char 	*_EXFUN(strcat,(char *, const char *));
char 	*_EXFUN(strchr,(const char *, int));
int	 _EXFUN(strcmp,(const char *, const char *));
int	 _EXFUN(strcoll,(const char *, const char *));
char 	*_EXFUN(strcpy,(char *, const char *));
  4002d0:	e0 c4 28 00 	l.add r6,r4,r5
  4002d4:	e0 e3 28 00 	l.add r7,r3,r5
	char *q = dst;
	const char *p = src;
	char ch;

	do {
		*q++ = ch = *p++;
  4002d8:	90 c6 00 00 	l.lbs r6,0x0(r6)
  4002dc:	d8 07 30 00 	l.sb 0x0(r7),r6
	} while (ch);
  4002e0:	bc 26 00 00 	l.sfnei r6,0x0
  4002e4:	13 ff ff fb 	l.bf 4002d0 <strcpy+0x4>
  4002e8:	9c a5 00 01 	l.addi r5,r5,0x1

	return dst;
}
  4002ec:	44 00 48 00 	l.jr r9
  4002f0:	a9 63 00 00 	l.ori r11,r3,0x0

004002f4 <strlen>:
 */

#include <string.h>

size_t strlen(const char *s)
{
  4002f4:	a8 83 00 00 	l.ori r4,r3,0x0
	const char *ss = s;
	while (*ss)
  4002f8:	90 a4 00 00 	l.lbs r5,0x0(r4)
  4002fc:	bc 25 00 00 	l.sfnei r5,0x0
  400300:	13 ff ff fe 	l.bf 4002f8 <strlen+0x4>
  400304:	9c 84 00 01 	l.addi r4,r4,0x1
  400308:	9c 84 ff ff 	l.addi r4,r4,0xffffffff
		ss++;
	return ss - s;
}
  40030c:	44 00 48 00 	l.jr r9
  400310:	e1 64 18 02 	l.sub r11,r4,r3

00400314 <strncmp>:
	const unsigned char *c1 = (const unsigned char *)s1;
	const unsigned char *c2 = (const unsigned char *)s2;
	unsigned char ch;
	int d = 0;

	while (n--) {
  400314:	9c c0 00 00 	l.addi r6,r0,0x0
  400318:	00 00 00 10 	l.j 400358 <strncmp+0x44>
  40031c:	a9 66 00 00 	l.ori r11,r6,0x0
size_t	 _EXFUN(strcspn,(const char *, const char *));
char 	*_EXFUN(strerror,(int));
size_t	 _EXFUN(strlen,(const char *));
char 	*_EXFUN(strncat,(char *, const char *, size_t));
int	 _EXFUN(strncmp,(const char *, const char *, size_t));
  400320:	e0 e3 30 00 	l.add r7,r3,r6
		d = (int)(ch = *c1++) - (int)*c2++;
  400324:	8d 68 00 00 	l.lbz r11,0x0(r8)
  400328:	8c e7 00 00 	l.lbz r7,0x0(r7)
  40032c:	e1 67 58 02 	l.sub r11,r7,r11
  400330:	9c c6 00 01 	l.addi r6,r6,0x1
		if (d || !ch)
  400334:	e1 00 58 02 	l.sub r8,r0,r11
  400338:	e1 08 58 04 	l.or r8,r8,r11
  40033c:	bd 88 00 00 	l.sfltsi r8,0x0
  400340:	10 00 00 09 	l.bf 400364 <strncmp+0x50>
  400344:	9c a5 ff ff 	l.addi r5,r5,0xffffffff
  400348:	9c e7 ff ff 	l.addi r7,r7,0xffffffff
  40034c:	bd 87 00 00 	l.sfltsi r7,0x0
  400350:	10 00 00 05 	l.bf 400364 <strncmp+0x50>
  400354:	15 00 00 00 	l.nop 0x0
	const unsigned char *c1 = (const unsigned char *)s1;
	const unsigned char *c2 = (const unsigned char *)s2;
	unsigned char ch;
	int d = 0;

	while (n--) {
  400358:	bc 25 00 00 	l.sfnei r5,0x0
  40035c:	13 ff ff f1 	l.bf 400320 <strncmp+0xc>
  400360:	e1 04 30 00 	l.add r8,r4,r6
		if (d || !ch)
			break;
	}

	return d;
}
  400364:	44 00 48 00 	l.jr r9
  400368:	15 00 00 00 	l.nop 0x0

0040036c <strncpy>:
 */

#include <string.h>

char *strncpy(char *dst, const char *src, size_t n)
{
  40036c:	d7 e1 17 fc 	l.sw 0xfffffffc(r1),r2
	char *q = dst;
  400370:	a8 c3 00 00 	l.ori r6,r3,0x0
	const char *p = src;
	char ch;

	while (n) {
  400374:	00 00 00 09 	l.j 400398 <strncpy+0x2c>
  400378:	9c 21 ff fc 	l.addi r1,r1,0xfffffffc
		n--;
		*q++ = ch = *p++;
  40037c:	90 e4 00 00 	l.lbs r7,0x0(r4)
  400380:	d8 06 38 00 	l.sb 0x0(r6),r7
	char *q = dst;
	const char *p = src;
	char ch;

	while (n) {
		n--;
  400384:	9c a5 ff ff 	l.addi r5,r5,0xffffffff
		*q++ = ch = *p++;
		if (!ch)
  400388:	bc 07 00 00 	l.sfeqi r7,0x0
  40038c:	10 00 00 0c 	l.bf 4003bc <strncpy+0x50>
  400390:	9c c6 00 01 	l.addi r6,r6,0x1
	const char *p = src;
	char ch;

	while (n) {
		n--;
		*q++ = ch = *p++;
  400394:	9c 84 00 01 	l.addi r4,r4,0x1
{
	char *q = dst;
	const char *p = src;
	char ch;

	while (n) {
  400398:	bc 25 00 00 	l.sfnei r5,0x0
  40039c:	13 ff ff f8 	l.bf 40037c <strncpy+0x10>
  4003a0:	15 00 00 00 	l.nop 0x0

	/* The specs say strncpy() fills the entire buffer with NUL.  Sigh. */
	memset(q, 0, n);

	return dst;
}
  4003a4:	00 00 00 0a 	l.j 4003cc <strncpy+0x60>
  4003a8:	9c 21 00 04 	l.addi r1,r1,0x4
		      :"+c" (nq), "+D" (q)
		      : "a" ((unsigned char)c * 0x0101010101010101U),
			"r" ((uint32_t) n & 7));
#else
	while (n--) {
		*q++ = c;
  4003ac:	9c 40 00 00 	l.addi r2,r0,0x0
  4003b0:	9c a5 ff ff 	l.addi r5,r5,0xffffffff
  4003b4:	d8 06 10 00 	l.sb 0x0(r6),r2
  4003b8:	9c c6 00 01 	l.addi r6,r6,0x1
	asm volatile ("cld ; rep ; stosq ; movl %3,%%ecx ; rep ; stosb"
		      :"+c" (nq), "+D" (q)
		      : "a" ((unsigned char)c * 0x0101010101010101U),
			"r" ((uint32_t) n & 7));
#else
	while (n--) {
  4003bc:	bc 25 00 00 	l.sfnei r5,0x0
  4003c0:	13 ff ff fb 	l.bf 4003ac <strncpy+0x40>
  4003c4:	15 00 00 00 	l.nop 0x0
  4003c8:	9c 21 00 04 	l.addi r1,r1,0x4
  4003cc:	a9 63 00 00 	l.ori r11,r3,0x0
  4003d0:	44 00 48 00 	l.jr r9
  4003d4:	84 41 ff fc 	l.lwz r2,0xfffffffc(r1)

004003d8 <vsnprintf>:
		st_normal,	/* Ground state */
		st_flags,	/* Special flags */
		st_width,	/* Field width */
		st_prec,	/* Field precision */
		st_modifiers	/* Length or conversion modifiers */
	} state = st_normal;
  4003d8:	9c e0 00 00 	l.addi r7,r0,0x0

	return o;
}

int vsnprintf(char *buffer, size_t n, const char *format, va_list ap)
{
  4003dc:	d7 e1 17 d4 	l.sw 0xffffffd4(r1),r2
  4003e0:	d7 e1 77 d8 	l.sw 0xffffffd8(r1),r14
  4003e4:	d7 e1 87 dc 	l.sw 0xffffffdc(r1),r16
  4003e8:	d7 e1 97 e0 	l.sw 0xffffffe0(r1),r18
  4003ec:	d7 e1 a7 e4 	l.sw 0xffffffe4(r1),r20
  4003f0:	d7 e1 b7 e8 	l.sw 0xffffffe8(r1),r22
  4003f4:	d7 e1 c7 ec 	l.sw 0xffffffec(r1),r24
  4003f8:	d7 e1 4f fc 	l.sw 0xfffffffc(r1),r9
  4003fc:	d7 e1 d7 f0 	l.sw 0xfffffff0(r1),r26
  400400:	d7 e1 e7 f4 	l.sw 0xfffffff4(r1),r28
  400404:	d7 e1 f7 f8 	l.sw 0xfffffff8(r1),r30
  400408:	9c 21 ff 9c 	l.addi r1,r1,0xffffff9c
  40040c:	a8 46 00 00 	l.ori r2,r6,0x0
  400410:	d4 01 18 2c 	l.sw 0x2c(r1),r3
  400414:	d4 01 20 08 	l.sw 0x8(r1),r4
	const char *p = format;
	char ch;
	char *q = buffer;
  400418:	aa c3 00 00 	l.ori r22,r3,0x0
	int rank = rank_int;	/* Default rank */
	int width = 0;
	int prec = -1;
	int base;
	size_t sz;
	enum flags flags = 0;
  40041c:	a9 c7 00 00 	l.ori r14,r7,0x0
	char *q = buffer;
	size_t o = 0;		/* Number of characters output */
	uintmax_t val = 0;
	int rank = rank_int;	/* Default rank */
	int width = 0;
	int prec = -1;
  400420:	9f 00 ff ff 	l.addi r24,r0,0xffffffff
	char ch;
	char *q = buffer;
	size_t o = 0;		/* Number of characters output */
	uintmax_t val = 0;
	int rank = rank_int;	/* Default rank */
	int width = 0;
  400424:	aa 87 00 00 	l.ori r20,r7,0x0
	const char *p = format;
	char ch;
	char *q = buffer;
	size_t o = 0;		/* Number of characters output */
	uintmax_t val = 0;
	int rank = rank_int;	/* Default rank */
  400428:	aa 07 00 00 	l.ori r16,r7,0x0
	} state = st_normal;
	const char *sarg;	/* %s string argument */
	char carg;		/* %c char argument */
	int slen;		/* String length */

	while ((ch = *p++)) {
  40042c:	00 00 02 a0 	l.j 400eac <vsnprintf+0xad4>
  400430:	aa 47 00 00 	l.ori r18,r7,0x0
		switch (state) {
  400434:	bc 47 00 04 	l.sfgtui r7,0x4
  400438:	10 00 02 9c 	l.bf 400ea8 <vsnprintf+0xad0>
  40043c:	18 80 00 41 	l.movhi r4,0x41
  400440:	b8 67 00 02 	l.slli r3,r7,0x2
  400444:	a8 84 6d 08 	l.ori r4,r4,0x6d08
  400448:	e0 63 20 00 	l.add r3,r3,r4
  40044c:	84 63 00 00 	l.lwz r3,0x0(r3)
  400450:	44 00 18 00 	l.jr r3
  400454:	15 00 00 00 	l.nop 0x0
		case st_normal:
			if (ch == '%') {
  400458:	bc 06 00 25 	l.sfeqi r6,0x25
  40045c:	10 00 02 84 	l.bf 400e6c <vsnprintf+0xa94>
  400460:	84 a1 00 08 	l.lwz r5,0x8(r1)
				flags = 0;
				rank = rank_int;
				width = 0;
				prec = -1;
			} else {
				EMIT(ch);
  400464:	e4 72 28 00 	l.sfgeu r18,r5
  400468:	10 00 00 04 	l.bf 400478 <vsnprintf+0xa0>
  40046c:	15 00 00 00 	l.nop 0x0
  400470:	d8 16 30 00 	l.sb 0x0(r22),r6
  400474:	9e d6 00 01 	l.addi r22,r22,0x1
  400478:	00 00 02 8c 	l.j 400ea8 <vsnprintf+0xad0>
  40047c:	9e 52 00 01 	l.addi r18,r18,0x1
			}
			break;

		case st_flags:
			switch (ch) {
  400480:	9c c6 ff e0 	l.addi r6,r6,0xffffffe0
  400484:	a4 c6 00 ff 	l.andi r6,r6,0xff
  400488:	bc 46 00 10 	l.sfgtui r6,0x10
  40048c:	10 00 02 7e 	l.bf 400e84 <vsnprintf+0xaac>
  400490:	18 60 00 41 	l.movhi r3,0x41
  400494:	b8 c6 00 02 	l.slli r6,r6,0x2
  400498:	a8 63 6d 1c 	l.ori r3,r3,0x6d1c
  40049c:	e0 c6 18 00 	l.add r6,r6,r3
  4004a0:	84 66 00 00 	l.lwz r3,0x0(r6)
  4004a4:	44 00 18 00 	l.jr r3
  4004a8:	15 00 00 00 	l.nop 0x0
			case '-':
				flags |= FL_MINUS;
				break;
			case '+':
				flags |= FL_PLUS;
				break;
  4004ac:	00 00 02 7f 	l.j 400ea8 <vsnprintf+0xad0>
  4004b0:	a9 ce 00 04 	l.ori r14,r14,0x4
			case '\'':
				flags |= FL_TICK;
				break;
  4004b4:	00 00 02 7d 	l.j 400ea8 <vsnprintf+0xad0>
  4004b8:	a9 ce 00 08 	l.ori r14,r14,0x8
			case ' ':
				flags |= FL_SPACE;
				break;
  4004bc:	00 00 02 7b 	l.j 400ea8 <vsnprintf+0xad0>
  4004c0:	a9 ce 00 10 	l.ori r14,r14,0x10
			case '#':
				flags |= FL_HASH;
				break;
  4004c4:	00 00 02 79 	l.j 400ea8 <vsnprintf+0xad0>
  4004c8:	a9 ce 00 20 	l.ori r14,r14,0x20
			case '0':
				flags |= FL_ZERO;
				break;
  4004cc:	00 00 02 77 	l.j 400ea8 <vsnprintf+0xad0>
  4004d0:	a9 ce 00 01 	l.ori r14,r14,0x1
				break;
			}
			break;

		case st_width:
			if (ch >= '0' && ch <= '9') {
  4004d4:	9c 66 ff d0 	l.addi r3,r6,0xffffffd0
  4004d8:	a4 63 00 ff 	l.andi r3,r3,0xff
  4004dc:	bc 43 00 09 	l.sfgtui r3,0x9
  4004e0:	10 00 00 08 	l.bf 400500 <vsnprintf+0x128>
  4004e4:	bc 26 00 2a 	l.sfnei r6,0x2a
				width = width * 10 + (ch - '0');
  4004e8:	e0 74 a0 00 	l.add r3,r20,r20
  4004ec:	ba 94 00 03 	l.slli r20,r20,0x3
  4004f0:	e2 83 a0 00 	l.add r20,r3,r20
  4004f4:	9e 94 ff d0 	l.addi r20,r20,0xffffffd0
  4004f8:	00 00 02 6c 	l.j 400ea8 <vsnprintf+0xad0>
  4004fc:	e2 94 30 00 	l.add r20,r20,r6
			} else if (ch == '*') {
  400500:	10 00 00 09 	l.bf 400524 <vsnprintf+0x14c>
  400504:	bc 26 00 2e 	l.sfnei r6,0x2e
				width = va_arg(ap, int);
  400508:	86 82 00 00 	l.lwz r20,0x0(r2)
				if (width < 0) {
  40050c:	bd 74 00 00 	l.sfgesi r20,0x0
  400510:	10 00 02 66 	l.bf 400ea8 <vsnprintf+0xad0>
  400514:	9c 42 00 04 	l.addi r2,r2,0x4
					width = -width;
  400518:	e2 80 a0 02 	l.sub r20,r0,r20
					flags |= FL_MINUS;
  40051c:	00 00 02 63 	l.j 400ea8 <vsnprintf+0xad0>
  400520:	a9 ce 00 02 	l.ori r14,r14,0x2
				}
			} else if (ch == '.') {
  400524:	10 00 02 5b 	l.bf 400e90 <vsnprintf+0xab8>
  400528:	15 00 00 00 	l.nop 0x0
				prec = 0;	/* Precision given */
				state = st_prec;
  40052c:	9c e0 00 03 	l.addi r7,r0,0x3
				if (width < 0) {
					width = -width;
					flags |= FL_MINUS;
				}
			} else if (ch == '.') {
				prec = 0;	/* Precision given */
  400530:	00 00 02 5e 	l.j 400ea8 <vsnprintf+0xad0>
  400534:	9f 00 00 00 	l.addi r24,r0,0x0
				p--;	/* Process this character again */
			}
			break;

		case st_prec:
			if (ch >= '0' && ch <= '9') {
  400538:	9c 66 ff d0 	l.addi r3,r6,0xffffffd0
  40053c:	a4 63 00 ff 	l.andi r3,r3,0xff
  400540:	bc 43 00 09 	l.sfgtui r3,0x9
  400544:	10 00 00 08 	l.bf 400564 <vsnprintf+0x18c>
  400548:	bc 26 00 2a 	l.sfnei r6,0x2a
				prec = prec * 10 + (ch - '0');
  40054c:	e0 78 c0 00 	l.add r3,r24,r24
  400550:	bb 18 00 03 	l.slli r24,r24,0x3
  400554:	e3 03 c0 00 	l.add r24,r3,r24
  400558:	9f 18 ff d0 	l.addi r24,r24,0xffffffd0
  40055c:	00 00 02 53 	l.j 400ea8 <vsnprintf+0xad0>
  400560:	e3 18 30 00 	l.add r24,r24,r6
			} else if (ch == '*') {
  400564:	10 00 02 4b 	l.bf 400e90 <vsnprintf+0xab8>
  400568:	9c 62 00 04 	l.addi r3,r2,0x4
				prec = va_arg(ap, int);
  40056c:	87 02 00 00 	l.lwz r24,0x0(r2)
				if (prec < 0)
  400570:	bd 98 00 00 	l.sfltsi r24,0x0
  400574:	0c 00 02 4d 	l.bnf 400ea8 <vsnprintf+0xad0>
  400578:	a8 43 00 00 	l.ori r2,r3,0x0
					prec = -1;
  40057c:	00 00 02 48 	l.j 400e9c <vsnprintf+0xac4>
  400580:	9f 00 ff ff 	l.addi r24,r0,0xffffffff
				p--;	/* Process this character again */
			}
			break;

		case st_modifiers:
			switch (ch) {
  400584:	bc 06 00 6c 	l.sfeqi r6,0x6c
  400588:	10 00 00 17 	l.bf 4005e4 <vsnprintf+0x20c>
  40058c:	bd 46 00 6c 	l.sfgtsi r6,0x6c
  400590:	10 00 00 09 	l.bf 4005b4 <vsnprintf+0x1dc>
  400594:	bc 06 00 74 	l.sfeqi r6,0x74
  400598:	bc 06 00 68 	l.sfeqi r6,0x68
  40059c:	10 00 00 10 	l.bf 4005dc <vsnprintf+0x204>
  4005a0:	bc 06 00 6a 	l.sfeqi r6,0x6a
  4005a4:	10 00 00 0c 	l.bf 4005d4 <vsnprintf+0x1fc>
  4005a8:	bc 06 00 4c 	l.sfeqi r6,0x4c
  4005ac:	00 00 00 06 	l.j 4005c4 <vsnprintf+0x1ec>
  4005b0:	15 00 00 00 	l.nop 0x0
  4005b4:	10 00 02 3c 	l.bf 400ea4 <vsnprintf+0xacc>
  4005b8:	bc 06 00 7a 	l.sfeqi r6,0x7a
  4005bc:	10 00 02 3a 	l.bf 400ea4 <vsnprintf+0xacc>
  4005c0:	bc 06 00 71 	l.sfeqi r6,0x71
  4005c4:	0c 00 00 0c 	l.bnf 4005f4 <vsnprintf+0x21c>
  4005c8:	bd b0 00 02 	l.sflesi r16,0x2
			case 't':
				rank = PTRDIFF_T_RANK;
				break;
			case 'L':
			case 'q':
				rank += 2;
  4005cc:	00 00 00 08 	l.j 4005ec <vsnprintf+0x214>
  4005d0:	9e 10 00 02 	l.addi r16,r16,0x2
				break;
			case 'l':
				rank++;	/* Longer rank */
				break;
			case 'j':
				rank = INTMAX_RANK;
  4005d4:	00 00 02 35 	l.j 400ea8 <vsnprintf+0xad0>
  4005d8:	9e 00 00 02 	l.addi r16,r0,0x2
		case st_modifiers:
			switch (ch) {
				/* Length modifiers - nonterminal sequences */
			case 'h':
				rank--;	/* Shorter rank */
				break;
  4005dc:	00 00 02 33 	l.j 400ea8 <vsnprintf+0xad0>
  4005e0:	9e 10 ff ff 	l.addi r16,r16,0xffffffff
			case 'l':
				rank++;	/* Longer rank */
				break;
  4005e4:	00 00 02 31 	l.j 400ea8 <vsnprintf+0xad0>
  4005e8:	9e 10 00 01 	l.addi r16,r16,0x1
				rank = PTRDIFF_T_RANK;
				break;
			case 'L':
			case 'q':
				rank += 2;
				break;
  4005ec:	00 00 02 30 	l.j 400eac <vsnprintf+0xad4>
  4005f0:	84 a1 00 20 	l.lwz r5,0x20(r1)
  4005f4:	10 00 00 04 	l.bf 400604 <vsnprintf+0x22c>
  4005f8:	bd 70 ff fe 	l.sfgesi r16,0xfffffffe
  4005fc:	9e 00 00 02 	l.addi r16,r0,0x2
  400600:	bd 70 ff fe 	l.sfgesi r16,0xfffffffe
  400604:	10 00 00 03 	l.bf 400610 <vsnprintf+0x238>
  400608:	bc 06 00 6e 	l.sfeqi r6,0x6e
  40060c:	9e 00 ff fe 	l.addi r16,r0,0xfffffffe
				if (rank < MIN_RANK)
					rank = MIN_RANK;
				else if (rank > MAX_RANK)
					rank = MAX_RANK;

				switch (ch) {
  400610:	10 00 01 ea 	l.bf 400db8 <vsnprintf+0x9e0>
  400614:	bd 46 00 6e 	l.sfgtsi r6,0x6e
  400618:	10 00 00 14 	l.bf 400668 <vsnprintf+0x290>
  40061c:	bc 06 00 73 	l.sfeqi r6,0x73
  400620:	bc 06 00 63 	l.sfeqi r6,0x63
  400624:	10 00 01 7e 	l.bf 400c1c <vsnprintf+0x844>
  400628:	bd 46 00 63 	l.sfgtsi r6,0x63
  40062c:	10 00 00 09 	l.bf 400650 <vsnprintf+0x278>
  400630:	bc 06 00 64 	l.sfeqi r6,0x64
  400634:	bc 06 00 50 	l.sfeqi r6,0x50
  400638:	10 00 00 1f 	l.bf 4006b4 <vsnprintf+0x2dc>
  40063c:	bc 06 00 58 	l.sfeqi r6,0x58
  400640:	0c 00 02 04 	l.bnf 400e50 <vsnprintf+0xa78>
  400644:	84 61 00 08 	l.lwz r3,0x8(r1)
					goto is_unsigned;
				case 'u':	/* Unsigned decimal */
					base = 10;
					goto is_unsigned;
				case 'X':	/* Upper case hexadecimal */
					flags |= FL_UPPER;
  400648:	00 00 00 3c 	l.j 400738 <vsnprintf+0x360>
  40064c:	a9 ce 00 80 	l.ori r14,r14,0x80
				if (rank < MIN_RANK)
					rank = MIN_RANK;
				else if (rank > MAX_RANK)
					rank = MAX_RANK;

				switch (ch) {
  400650:	10 00 00 20 	l.bf 4006d0 <vsnprintf+0x2f8>
  400654:	bc 06 00 69 	l.sfeqi r6,0x69
  400658:	0c 00 01 fe 	l.bnf 400e50 <vsnprintf+0xa78>
  40065c:	84 61 00 08 	l.lwz r3,0x8(r1)
					goto is_integer;

				case 'd':	/* Signed decimal output */
				case 'i':
					base = 10;
					flags |= FL_SIGNED;
  400660:	00 00 00 1d 	l.j 4006d4 <vsnprintf+0x2fc>
  400664:	a9 ce 00 40 	l.ori r14,r14,0x40
				if (rank < MIN_RANK)
					rank = MIN_RANK;
				else if (rank > MAX_RANK)
					rank = MAX_RANK;

				switch (ch) {
  400668:	10 00 01 73 	l.bf 400c34 <vsnprintf+0x85c>
  40066c:	bd 46 00 73 	l.sfgtsi r6,0x73
  400670:	10 00 00 09 	l.bf 400694 <vsnprintf+0x2bc>
  400674:	bc 06 00 75 	l.sfeqi r6,0x75
  400678:	bc 06 00 6f 	l.sfeqi r6,0x6f
  40067c:	10 00 00 0c 	l.bf 4006ac <vsnprintf+0x2d4>
  400680:	bc 06 00 70 	l.sfeqi r6,0x70
  400684:	0c 00 01 f3 	l.bnf 400e50 <vsnprintf+0xa78>
  400688:	84 61 00 08 	l.lwz r3,0x8(r1)
					/* fall through */
				case 'p':	/* Pointer */
					base = 16;
					prec = (CHAR_BIT*sizeof(void *)+3)/4;
					flags |= FL_HASH;
					val = (uintmax_t)(uintptr_t)
  40068c:	00 00 00 0c 	l.j 4006bc <vsnprintf+0x2e4>
  400690:	84 a2 00 00 	l.lwz r5,0x0(r2)
				if (rank < MIN_RANK)
					rank = MIN_RANK;
				else if (rank > MAX_RANK)
					rank = MAX_RANK;

				switch (ch) {
  400694:	10 00 00 27 	l.bf 400730 <vsnprintf+0x358>
  400698:	bc 06 00 78 	l.sfeqi r6,0x78
  40069c:	0c 00 01 ed 	l.bnf 400e50 <vsnprintf+0xa78>
  4006a0:	84 61 00 08 	l.lwz r3,0x8(r1)
					goto is_unsigned;
				case 'X':	/* Upper case hexadecimal */
					flags |= FL_UPPER;
					/* fall through */
				case 'x':	/* Hexadecimal */
					base = 16;
  4006a4:	00 00 00 26 	l.j 40073c <vsnprintf+0x364>
  4006a8:	9f 40 00 10 	l.addi r26,r0,0x10
							   signed long long);
						break;
					}
					goto is_integer;
				case 'o':	/* Octal */
					base = 8;
  4006ac:	00 00 00 24 	l.j 40073c <vsnprintf+0x364>
  4006b0:	9f 40 00 08 	l.addi r26,r0,0x8
				else if (rank > MAX_RANK)
					rank = MAX_RANK;

				switch (ch) {
				case 'P':	/* Upper case pointer */
					flags |= FL_UPPER;
  4006b4:	a9 ce 00 80 	l.ori r14,r14,0x80
					/* fall through */
				case 'p':	/* Pointer */
					base = 16;
					prec = (CHAR_BIT*sizeof(void *)+3)/4;
					flags |= FL_HASH;
					val = (uintmax_t)(uintptr_t)
  4006b8:	84 a2 00 00 	l.lwz r5,0x0(r2)
					flags |= FL_UPPER;
					/* fall through */
				case 'p':	/* Pointer */
					base = 16;
					prec = (CHAR_BIT*sizeof(void *)+3)/4;
					flags |= FL_HASH;
  4006bc:	a9 ce 00 20 	l.ori r14,r14,0x20
					val = (uintmax_t)(uintptr_t)
						va_arg(ap, void *);
  4006c0:	9c 42 00 04 	l.addi r2,r2,0x4
				switch (ch) {
				case 'P':	/* Upper case pointer */
					flags |= FL_UPPER;
					/* fall through */
				case 'p':	/* Pointer */
					base = 16;
  4006c4:	9f 40 00 10 	l.addi r26,r0,0x10
					prec = (CHAR_BIT*sizeof(void *)+3)/4;
					flags |= FL_HASH;
					val = (uintmax_t)(uintptr_t)
						va_arg(ap, void *);
					goto is_integer;
  4006c8:	00 00 00 35 	l.j 40079c <vsnprintf+0x3c4>
  4006cc:	9f 00 00 08 	l.addi r24,r0,0x8

				case 'd':	/* Signed decimal output */
				case 'i':
					base = 10;
					flags |= FL_SIGNED;
  4006d0:	a9 ce 00 40 	l.ori r14,r14,0x40
					switch (rank) {
  4006d4:	bc 10 00 00 	l.sfeqi r16,0x0
  4006d8:	10 00 00 10 	l.bf 400718 <vsnprintf+0x340>
  4006dc:	bd 50 00 00 	l.sfgtsi r16,0x0
  4006e0:	10 00 00 07 	l.bf 4006fc <vsnprintf+0x324>
  4006e4:	bc 10 00 01 	l.sfeqi r16,0x1
  4006e8:	bc 10 ff ff 	l.sfeqi r16,0xffffffff
  4006ec:	0c 00 00 08 	l.bnf 40070c <vsnprintf+0x334>
  4006f0:	15 00 00 00 	l.nop 0x0
						val = (uintmax_t)(intmax_t)
							(signed char)
							va_arg(ap, signed int);
						break;
					case rank_short:
						val = (uintmax_t)(intmax_t)
  4006f4:	00 00 00 07 	l.j 400710 <vsnprintf+0x338>
  4006f8:	98 a2 00 02 	l.lhs r5,0x2(r2)

				case 'd':	/* Signed decimal output */
				case 'i':
					base = 10;
					flags |= FL_SIGNED;
					switch (rank) {
  4006fc:	10 00 00 07 	l.bf 400718 <vsnprintf+0x340>
  400700:	bc 10 00 02 	l.sfeqi r16,0x2
  400704:	10 00 00 07 	l.bf 400720 <vsnprintf+0x348>
  400708:	15 00 00 00 	l.nop 0x0
  40070c:	90 a2 00 03 	l.lbs r5,0x3(r2)
							va_arg(ap, signed int);
						break;
					case rank_short:
						val = (uintmax_t)(intmax_t)
							(signed short)
							va_arg(ap, signed int);
  400710:	00 00 00 06 	l.j 400728 <vsnprintf+0x350>
  400714:	9c 42 00 04 	l.addi r2,r2,0x4
					case rank_int:
						val = (uintmax_t)(intmax_t)
						    va_arg(ap, signed int);
						break;
					case rank_long:
						val = (uintmax_t)(intmax_t)
  400718:	03 ff ff fe 	l.j 400710 <vsnprintf+0x338>
  40071c:	84 a2 00 00 	l.lwz r5,0x0(r2)
						    va_arg(ap, signed long);
						break;
					case rank_longlong:
						val = (uintmax_t)(intmax_t)
  400720:	84 a2 00 04 	l.lwz r5,0x4(r2)
  400724:	9c 42 00 08 	l.addi r2,r2,0x8
						    va_arg(ap,
							   signed long long);
						break;
  400728:	00 00 00 1d 	l.j 40079c <vsnprintf+0x3c4>
  40072c:	9f 40 00 0a 	l.addi r26,r0,0xa
				case 'o':	/* Octal */
					base = 8;
					goto is_unsigned;
				case 'u':	/* Unsigned decimal */
					base = 10;
					goto is_unsigned;
  400730:	00 00 00 03 	l.j 40073c <vsnprintf+0x364>
  400734:	9f 40 00 0a 	l.addi r26,r0,0xa
				case 'X':	/* Upper case hexadecimal */
					flags |= FL_UPPER;
					/* fall through */
				case 'x':	/* Hexadecimal */
					base = 16;
  400738:	9f 40 00 10 	l.addi r26,r0,0x10
					goto is_unsigned;

				is_unsigned:
					switch (rank) {
  40073c:	bc 10 00 00 	l.sfeqi r16,0x0
  400740:	10 00 00 12 	l.bf 400788 <vsnprintf+0x3b0>
  400744:	bd 50 00 00 	l.sfgtsi r16,0x0
  400748:	10 00 00 07 	l.bf 400764 <vsnprintf+0x38c>
  40074c:	bc 10 00 01 	l.sfeqi r16,0x1
  400750:	bc 10 ff ff 	l.sfeqi r16,0xffffffff
  400754:	0c 00 00 08 	l.bnf 400774 <vsnprintf+0x39c>
  400758:	15 00 00 00 	l.nop 0x0
							va_arg(ap, unsigned
							       int);
						break;
					case rank_short:
						val = (uintmax_t)
							(unsigned short)
  40075c:	00 00 00 09 	l.j 400780 <vsnprintf+0x3a8>
  400760:	84 a2 00 00 	l.lwz r5,0x0(r2)
				case 'x':	/* Hexadecimal */
					base = 16;
					goto is_unsigned;

				is_unsigned:
					switch (rank) {
  400764:	10 00 00 09 	l.bf 400788 <vsnprintf+0x3b0>
  400768:	bc 10 00 02 	l.sfeqi r16,0x2
  40076c:	10 00 00 0a 	l.bf 400794 <vsnprintf+0x3bc>
  400770:	15 00 00 00 	l.nop 0x0
					case rank_char:
						val = (uintmax_t)
							(unsigned char)
  400774:	84 a2 00 00 	l.lwz r5,0x0(r2)
					goto is_unsigned;

				is_unsigned:
					switch (rank) {
					case rank_char:
						val = (uintmax_t)
  400778:	00 00 00 05 	l.j 40078c <vsnprintf+0x3b4>
  40077c:	a4 a5 00 ff 	l.andi r5,r5,0xff
							(unsigned char)
							va_arg(ap, unsigned
							       int);
						break;
					case rank_short:
						val = (uintmax_t)
  400780:	00 00 00 03 	l.j 40078c <vsnprintf+0x3b4>
  400784:	a4 a5 ff ff 	l.andi r5,r5,0xffff
						val = (uintmax_t)
							va_arg(ap, unsigned
							       int);
						break;
					case rank_long:
						val = (uintmax_t)
  400788:	84 a2 00 00 	l.lwz r5,0x0(r2)
							va_arg(ap, unsigned
							       long);
						break;
  40078c:	00 00 00 04 	l.j 40079c <vsnprintf+0x3c4>
  400790:	9c 42 00 04 	l.addi r2,r2,0x4
					case rank_longlong:
						val = (uintmax_t)
  400794:	84 a2 00 04 	l.lwz r5,0x4(r2)
  400798:	9c 42 00 08 	l.addi r2,r2,0x8
						break;
					}
					/* fall through */

				is_integer:
					sz = format_int(q, (o < n) ? n - o : 0,
  40079c:	84 81 00 08 	l.lwz r4,0x8(r1)
  4007a0:	e4 72 20 00 	l.sfgeu r18,r4
  4007a4:	10 00 00 03 	l.bf 4007b0 <vsnprintf+0x3d8>
  4007a8:	9f 80 00 00 	l.addi r28,r0,0x0
  4007ac:	e3 84 90 02 	l.sub r28,r4,r18
	int minus = 0;
	int ndigits = 0, nchars;
	int tickskip, b4tick;

	/* Select type of digits */
	digits = (flags & FL_UPPER) ? ucdigits : lcdigits;
  4007b0:	18 e0 00 41 	l.movhi r7,0x41
  4007b4:	a4 ce 00 80 	l.andi r6,r14,0x80
  4007b8:	a8 e7 77 34 	l.ori r7,r7,0x7734
						break;
					}
					/* fall through */

				is_integer:
					sz = format_int(q, (o < n) ? n - o : 0,
  4007bc:	d4 01 28 1c 	l.sw 0x1c(r1),r5
	int minus = 0;
	int ndigits = 0, nchars;
	int tickskip, b4tick;

	/* Select type of digits */
	digits = (flags & FL_UPPER) ? ucdigits : lcdigits;
  4007c0:	d4 01 30 10 	l.sw 0x10(r1),r6
  4007c4:	bc 06 00 00 	l.sfeqi r6,0x0
  4007c8:	10 00 00 05 	l.bf 4007dc <vsnprintf+0x404>
  4007cc:	d4 01 38 28 	l.sw 0x28(r1),r7
  4007d0:	18 60 00 41 	l.movhi r3,0x41
  4007d4:	a8 63 77 20 	l.ori r3,r3,0x7720
  4007d8:	d4 01 18 28 	l.sw 0x28(r1),r3

	/* If signed, separate out the minus */
	if (flags & FL_SIGNED && (long) val < 0) {
  4007dc:	bd 65 00 00 	l.sfgesi r5,0x0
  4007e0:	10 00 00 0a 	l.bf 400808 <vsnprintf+0x430>
  4007e4:	b8 6e 00 46 	l.srli r3,r14,0x6
  4007e8:	a4 63 00 01 	l.andi r3,r3,0x1
  4007ec:	bc 03 00 00 	l.sfeqi r3,0x0
  4007f0:	10 00 00 06 	l.bf 400808 <vsnprintf+0x430>
  4007f4:	e0 a0 28 02 	l.sub r5,r0,r5
		minus = 1;
  4007f8:	9c 80 00 01 	l.addi r4,r0,0x1
		val = (unsigned long) (-(long) val);
  4007fc:	d4 01 28 1c 	l.sw 0x1c(r1),r5
	/* Select type of digits */
	digits = (flags & FL_UPPER) ? ucdigits : lcdigits;

	/* If signed, separate out the minus */
	if (flags & FL_SIGNED && (long) val < 0) {
		minus = 1;
  400800:	00 00 00 04 	l.j 400810 <vsnprintf+0x438>
  400804:	d4 01 20 0c 	l.sw 0xc(r1),r4
	size_t o = 0, oo;
	static const char lcdigits[] = "0123456789abcdef";
	static const char ucdigits[] = "0123456789ABCDEF";
	const char *digits;
	unsigned long tmpval;
	int minus = 0;
  400808:	9c a0 00 00 	l.addi r5,r0,0x0
  40080c:	d4 01 28 0c 	l.sw 0xc(r1),r5
	int ndigits = 0, nchars;
  400810:	9c c0 00 00 	l.addi r6,r0,0x0
	/* Select type of digits */
	digits = (flags & FL_UPPER) ? ucdigits : lcdigits;

	/* If signed, separate out the minus */
	if (flags & FL_SIGNED && (long) val < 0) {
		minus = 1;
  400814:	85 61 00 1c 	l.lwz r11,0x1c(r1)
	static const char lcdigits[] = "0123456789abcdef";
	static const char ucdigits[] = "0123456789ABCDEF";
	const char *digits;
	unsigned long tmpval;
	int minus = 0;
	int ndigits = 0, nchars;
  400818:	00 00 00 07 	l.j 400834 <vsnprintf+0x45c>
  40081c:	d4 01 30 00 	l.sw 0x0(r1),r6
	}

	/* Count the number of digits needed.  This returns zero for 0. */
	tmpval = val;
	while (tmpval) {
		tmpval /= base;
  400820:	07 ff fe 21 	l.jal 4000a4 <__udivsi3>
  400824:	a8 9a 00 00 	l.ori r4,r26,0x0
		ndigits++;
  400828:	84 e1 00 00 	l.lwz r7,0x0(r1)
  40082c:	9c e7 00 01 	l.addi r7,r7,0x1
  400830:	d4 01 38 00 	l.sw 0x0(r1),r7
		val = (unsigned long) (-(long) val);
	}

	/* Count the number of digits needed.  This returns zero for 0. */
	tmpval = val;
	while (tmpval) {
  400834:	bc 2b 00 00 	l.sfnei r11,0x0
  400838:	13 ff ff fa 	l.bf 400820 <vsnprintf+0x448>
  40083c:	a8 6b 00 00 	l.ori r3,r11,0x0
		ndigits++;
	}

	/* Adjust ndigits for size of output */

	if (flags & FL_HASH && base == 8) {
  400840:	b8 8e 00 45 	l.srli r4,r14,0x5
  400844:	a4 84 00 01 	l.andi r4,r4,0x1
  400848:	bc 04 00 00 	l.sfeqi r4,0x0
  40084c:	10 00 00 0b 	l.bf 400878 <vsnprintf+0x4a0>
  400850:	d4 01 20 14 	l.sw 0x14(r1),r4
  400854:	bc 3a 00 08 	l.sfnei r26,0x8
  400858:	10 00 00 09 	l.bf 40087c <vsnprintf+0x4a4>
  40085c:	ab d8 00 00 	l.ori r30,r24,0x0
		if (prec < ndigits + 1)
  400860:	84 61 00 00 	l.lwz r3,0x0(r1)
  400864:	e5 83 c0 00 	l.sflts r3,r24
  400868:	10 00 00 06 	l.bf 400880 <vsnprintf+0x4a8>
  40086c:	84 81 00 00 	l.lwz r4,0x0(r1)
			prec = ndigits + 1;
  400870:	00 00 00 04 	l.j 400880 <vsnprintf+0x4a8>
  400874:	9f c3 00 01 	l.addi r30,r3,0x1
		ndigits++;
	}

	/* Adjust ndigits for size of output */

	if (flags & FL_HASH && base == 8) {
  400878:	ab d8 00 00 	l.ori r30,r24,0x0
		if (prec < ndigits + 1)
			prec = ndigits + 1;
	}

	if (ndigits < prec) {
  40087c:	84 81 00 00 	l.lwz r4,0x0(r1)
  400880:	e5 84 f0 00 	l.sflts r4,r30
  400884:	10 00 00 08 	l.bf 4008a4 <vsnprintf+0x4cc>
  400888:	a4 6e 00 08 	l.andi r3,r14,0x8
		ndigits = prec;	/* Mandatory number padding */
	} else if (val == 0) {
  40088c:	84 a1 00 1c 	l.lwz r5,0x1c(r1)
  400890:	bc 05 00 00 	l.sfeqi r5,0x0
  400894:	10 00 00 04 	l.bf 4008a4 <vsnprintf+0x4cc>
  400898:	9f c0 00 01 	l.addi r30,r0,0x1
  40089c:	ab c4 00 00 	l.ori r30,r4,0x0
		ndigits = 1;	/* Zero still requires space */
	}

	/* For ', figure out what the skip should be */
	if (flags & FL_TICK) {
  4008a0:	a4 6e 00 08 	l.andi r3,r14,0x8
  4008a4:	bc 03 00 00 	l.sfeqi r3,0x0
  4008a8:	10 00 00 08 	l.bf 4008c8 <vsnprintf+0x4f0>
  4008ac:	d4 01 f0 04 	l.sw 0x4(r1),r30
		tickskip = (base == 16) ? 4 : 3;
  4008b0:	9c c0 00 03 	l.addi r6,r0,0x3
  4008b4:	bc 3a 00 10 	l.sfnei r26,0x10
  4008b8:	10 00 00 04 	l.bf 4008c8 <vsnprintf+0x4f0>
  4008bc:	d4 01 30 04 	l.sw 0x4(r1),r6
  4008c0:	9c e0 00 04 	l.addi r7,r0,0x4
  4008c4:	d4 01 38 04 	l.sw 0x4(r1),r7
	} else {
		tickskip = ndigits;	/* No tick marks */
	}

	/* Tick marks aren't digits, but generated by the number converter */
	ndigits += (ndigits - 1) / tickskip;
  4008c8:	9c 7e ff ff 	l.addi r3,r30,0xffffffff
  4008cc:	07 ff fe 35 	l.jal 4001a0 <__divsi3>
  4008d0:	84 81 00 04 	l.lwz r4,0x4(r1)
  4008d4:	e3 cb f0 00 	l.add r30,r11,r30

	/* Now compute the number of nondigits */
	nchars = ndigits;

	if (minus || (flags & (FL_PLUS | FL_SPACE)))
  4008d8:	84 61 00 0c 	l.lwz r3,0xc(r1)
  4008dc:	bc 23 00 00 	l.sfnei r3,0x0
  4008e0:	10 00 00 06 	l.bf 4008f8 <vsnprintf+0x520>
  4008e4:	d4 01 f0 00 	l.sw 0x0(r1),r30
  4008e8:	a4 6e 00 14 	l.andi r3,r14,0x14
  4008ec:	bc 03 00 00 	l.sfeqi r3,0x0
  4008f0:	10 00 00 05 	l.bf 400904 <vsnprintf+0x52c>
  4008f4:	d4 01 f0 18 	l.sw 0x18(r1),r30
		nchars++;	/* Need space for sign */
  4008f8:	84 81 00 00 	l.lwz r4,0x0(r1)
  4008fc:	9c 84 00 01 	l.addi r4,r4,0x1
  400900:	d4 01 20 18 	l.sw 0x18(r1),r4
	if ((flags & FL_HASH) && base == 16) {
  400904:	ac 7a 00 10 	l.xori r3,r26,0x10
  400908:	84 a1 00 14 	l.lwz r5,0x14(r1)
  40090c:	e0 80 18 02 	l.sub r4,r0,r3
  400910:	e0 84 18 04 	l.or r4,r4,r3
  400914:	ac 84 ff ff 	l.xori r4,r4,0xffffffff
  400918:	b8 84 00 5f 	l.srli r4,r4,0x1f
  40091c:	e0 85 20 03 	l.and r4,r5,r4
  400920:	bc 04 00 00 	l.sfeqi r4,0x0
  400924:	10 00 00 06 	l.bf 40093c <vsnprintf+0x564>
  400928:	84 e1 00 18 	l.lwz r7,0x18(r1)
		nchars += 2;	/* Add 0x for hex */
  40092c:	84 c1 00 18 	l.lwz r6,0x18(r1)
  400930:	9c c6 00 02 	l.addi r6,r6,0x2
  400934:	d4 01 30 18 	l.sw 0x18(r1),r6
	}

	/* Emit early space padding */
	if (!(flags & (FL_MINUS | FL_ZERO)) && width > nchars) {
  400938:	84 e1 00 18 	l.lwz r7,0x18(r1)
  40093c:	a4 6e 00 03 	l.andi r3,r14,0x3
  400940:	e5 54 38 00 	l.sfgts r20,r7
  400944:	10 00 00 03 	l.bf 400950 <vsnprintf+0x578>
  400948:	9c a0 00 01 	l.addi r5,r0,0x1
  40094c:	9c a0 00 00 	l.addi r5,r0,0x0
  400950:	a4 a5 00 ff 	l.andi r5,r5,0xff
  400954:	bc 05 00 00 	l.sfeqi r5,0x0
  400958:	10 00 00 13 	l.bf 4009a4 <vsnprintf+0x5cc>
  40095c:	ab d4 00 00 	l.ori r30,r20,0x0
  400960:	bc 23 00 00 	l.sfnei r3,0x0
  400964:	10 00 00 11 	l.bf 4009a8 <vsnprintf+0x5d0>
  400968:	a8 b6 00 00 	l.ori r5,r22,0x0
  40096c:	ab d4 00 00 	l.ori r30,r20,0x0
  400970:	9c c0 00 00 	l.addi r6,r0,0x0
		while (width > nchars) {
			EMIT(' ');
  400974:	e4 66 e0 00 	l.sfgeu r6,r28
  400978:	10 00 00 04 	l.bf 400988 <vsnprintf+0x5b0>
  40097c:	9c e0 00 20 	l.addi r7,r0,0x20
  400980:	d8 05 38 00 	l.sb 0x0(r5),r7
  400984:	9c a5 00 01 	l.addi r5,r5,0x1
			width--;
  400988:	9f de ff ff 	l.addi r30,r30,0xffffffff
		nchars += 2;	/* Add 0x for hex */
	}

	/* Emit early space padding */
	if (!(flags & (FL_MINUS | FL_ZERO)) && width > nchars) {
		while (width > nchars) {
  40098c:	84 e1 00 18 	l.lwz r7,0x18(r1)
  400990:	e5 5e 38 00 	l.sfgts r30,r7
  400994:	13 ff ff f8 	l.bf 400974 <vsnprintf+0x59c>
  400998:	9c c6 00 01 	l.addi r6,r6,0x1
			width--;
		}
	}

	/* Emit nondigits */
	if (minus)
  40099c:	00 00 00 05 	l.j 4009b0 <vsnprintf+0x5d8>
  4009a0:	84 e1 00 0c 	l.lwz r7,0xc(r1)
	if ((flags & FL_HASH) && base == 16) {
		nchars += 2;	/* Add 0x for hex */
	}

	/* Emit early space padding */
	if (!(flags & (FL_MINUS | FL_ZERO)) && width > nchars) {
  4009a4:	a8 b6 00 00 	l.ori r5,r22,0x0
static size_t
format_int(char *q, size_t n, unsigned long val, enum flags flags,
	   int base, int width, int prec)
{
	char *qq;
	size_t o = 0, oo;
  4009a8:	9c c0 00 00 	l.addi r6,r0,0x0
			width--;
		}
	}

	/* Emit nondigits */
	if (minus)
  4009ac:	84 e1 00 0c 	l.lwz r7,0xc(r1)
  4009b0:	bc 07 00 00 	l.sfeqi r7,0x0
  4009b4:	10 00 00 07 	l.bf 4009d0 <vsnprintf+0x5f8>
  4009b8:	a4 ee 00 04 	l.andi r7,r14,0x4
		EMIT('-');
  4009bc:	e4 66 e0 00 	l.sfgeu r6,r28
  4009c0:	0c 00 00 12 	l.bnf 400a08 <vsnprintf+0x630>
  4009c4:	9c e0 00 2d 	l.addi r7,r0,0x2d
	else if (flags & FL_PLUS)
		EMIT('+');
	else if (flags & FL_SPACE)
		EMIT(' ');
  4009c8:	00 00 00 13 	l.j 400a14 <vsnprintf+0x63c>
  4009cc:	9c c6 00 01 	l.addi r6,r6,0x1
	}

	/* Emit nondigits */
	if (minus)
		EMIT('-');
	else if (flags & FL_PLUS)
  4009d0:	bc 07 00 00 	l.sfeqi r7,0x0
  4009d4:	10 00 00 07 	l.bf 4009f0 <vsnprintf+0x618>
  4009d8:	a4 ee 00 10 	l.andi r7,r14,0x10
		EMIT('+');
  4009dc:	e4 66 e0 00 	l.sfgeu r6,r28
  4009e0:	0c 00 00 0a 	l.bnf 400a08 <vsnprintf+0x630>
  4009e4:	9c e0 00 2b 	l.addi r7,r0,0x2b
	else if (flags & FL_SPACE)
		EMIT(' ');
  4009e8:	00 00 00 0b 	l.j 400a14 <vsnprintf+0x63c>
  4009ec:	9c c6 00 01 	l.addi r6,r6,0x1
	/* Emit nondigits */
	if (minus)
		EMIT('-');
	else if (flags & FL_PLUS)
		EMIT('+');
	else if (flags & FL_SPACE)
  4009f0:	bc 07 00 00 	l.sfeqi r7,0x0
  4009f4:	10 00 00 09 	l.bf 400a18 <vsnprintf+0x640>
  4009f8:	bc 04 00 00 	l.sfeqi r4,0x0
		EMIT(' ');
  4009fc:	e4 66 e0 00 	l.sfgeu r6,r28
  400a00:	10 00 00 04 	l.bf 400a10 <vsnprintf+0x638>
  400a04:	9c e0 00 20 	l.addi r7,r0,0x20
  400a08:	d8 05 38 00 	l.sb 0x0(r5),r7
  400a0c:	9c a5 00 01 	l.addi r5,r5,0x1
  400a10:	9c c6 00 01 	l.addi r6,r6,0x1

	if ((flags & FL_HASH) && base == 16) {
  400a14:	bc 04 00 00 	l.sfeqi r4,0x0
  400a18:	10 00 00 13 	l.bf 400a64 <vsnprintf+0x68c>
  400a1c:	84 e1 00 00 	l.lwz r7,0x0(r1)
		EMIT('0');
  400a20:	e4 66 e0 00 	l.sfgeu r6,r28
  400a24:	10 00 00 04 	l.bf 400a34 <vsnprintf+0x65c>
  400a28:	9c 80 00 30 	l.addi r4,r0,0x30
  400a2c:	d8 05 20 00 	l.sb 0x0(r5),r4
  400a30:	9c a5 00 01 	l.addi r5,r5,0x1
  400a34:	9c c6 00 01 	l.addi r6,r6,0x1
		EMIT((flags & FL_UPPER) ? 'X' : 'x');
  400a38:	e4 66 e0 00 	l.sfgeu r6,r28
  400a3c:	10 00 00 08 	l.bf 400a5c <vsnprintf+0x684>
  400a40:	84 e1 00 10 	l.lwz r7,0x10(r1)
  400a44:	bc 07 00 00 	l.sfeqi r7,0x0
  400a48:	10 00 00 03 	l.bf 400a54 <vsnprintf+0x67c>
  400a4c:	9c 80 00 78 	l.addi r4,r0,0x78
  400a50:	9c 80 00 58 	l.addi r4,r0,0x58
  400a54:	d8 05 20 00 	l.sb 0x0(r5),r4
  400a58:	9c a5 00 01 	l.addi r5,r5,0x1
  400a5c:	9c c6 00 01 	l.addi r6,r6,0x1
	}

	/* Emit zero padding */
	if ((flags & (FL_MINUS | FL_ZERO)) == FL_ZERO && width > ndigits) {
  400a60:	84 e1 00 00 	l.lwz r7,0x0(r1)
  400a64:	e5 5e 38 00 	l.sfgts r30,r7
  400a68:	10 00 00 03 	l.bf 400a74 <vsnprintf+0x69c>
  400a6c:	9c 80 00 01 	l.addi r4,r0,0x1
  400a70:	9c 80 00 00 	l.addi r4,r0,0x0
  400a74:	a4 84 00 ff 	l.andi r4,r4,0xff
  400a78:	bc 04 00 00 	l.sfeqi r4,0x0
  400a7c:	10 00 00 12 	l.bf 400ac4 <vsnprintf+0x6ec>
  400a80:	84 e1 00 00 	l.lwz r7,0x0(r1)
  400a84:	bc 23 00 01 	l.sfnei r3,0x1
  400a88:	10 00 00 10 	l.bf 400ac8 <vsnprintf+0x6f0>
  400a8c:	84 61 00 04 	l.lwz r3,0x4(r1)
		while (width > nchars) {
  400a90:	00 00 00 09 	l.j 400ab4 <vsnprintf+0x6dc>
  400a94:	84 81 00 18 	l.lwz r4,0x18(r1)
			EMIT('0');
  400a98:	10 00 00 04 	l.bf 400aa8 <vsnprintf+0x6d0>
  400a9c:	9c 60 00 30 	l.addi r3,r0,0x30
  400aa0:	d8 05 18 00 	l.sb 0x0(r5),r3
  400aa4:	9c a5 00 01 	l.addi r5,r5,0x1
  400aa8:	9c c6 00 01 	l.addi r6,r6,0x1
			width--;
  400aac:	9f de ff ff 	l.addi r30,r30,0xffffffff
		EMIT((flags & FL_UPPER) ? 'X' : 'x');
	}

	/* Emit zero padding */
	if ((flags & (FL_MINUS | FL_ZERO)) == FL_ZERO && width > ndigits) {
		while (width > nchars) {
  400ab0:	84 81 00 18 	l.lwz r4,0x18(r1)
  400ab4:	e5 5e 20 00 	l.sfgts r30,r4
  400ab8:	13 ff ff f8 	l.bf 400a98 <vsnprintf+0x6c0>
  400abc:	e4 66 e0 00 	l.sfgeu r6,r28
			width--;
		}
	}

	/* Generate the number.  This is done from right to left. */
	q += ndigits;		/* Advance the pointer to end of number */
  400ac0:	84 e1 00 00 	l.lwz r7,0x0(r1)
			qq--;
			oo--;
			ndigits--;
			if (oo < n)
				*qq = '_';
			b4tick = tickskip - 1;
  400ac4:	84 61 00 04 	l.lwz r3,0x4(r1)
			width--;
		}
	}

	/* Generate the number.  This is done from right to left. */
	q += ndigits;		/* Advance the pointer to end of number */
  400ac8:	e0 a5 38 00 	l.add r5,r5,r7
	o += ndigits;
  400acc:	e0 c6 38 00 	l.add r6,r6,r7
			qq--;
			oo--;
			ndigits--;
			if (oo < n)
				*qq = '_';
			b4tick = tickskip - 1;
  400ad0:	9c 63 ff ff 	l.addi r3,r3,0xffffffff
			width--;
		}
	}

	/* Generate the number.  This is done from right to left. */
	q += ndigits;		/* Advance the pointer to end of number */
  400ad4:	d4 01 28 24 	l.sw 0x24(r1),r5
	o += ndigits;
  400ad8:	d4 01 30 14 	l.sw 0x14(r1),r6
	qq = q;
	oo = o;			/* Temporary values */
  400adc:	d4 01 30 10 	l.sw 0x10(r1),r6
	}

	/* Generate the number.  This is done from right to left. */
	q += ndigits;		/* Advance the pointer to end of number */
	o += ndigits;
	qq = q;
  400ae0:	d4 01 28 0c 	l.sw 0xc(r1),r5
			qq--;
			oo--;
			ndigits--;
			if (oo < n)
				*qq = '_';
			b4tick = tickskip - 1;
  400ae4:	00 00 00 2d 	l.j 400b98 <vsnprintf+0x7c0>
  400ae8:	d4 01 18 30 	l.sw 0x30(r1),r3
	qq = q;
	oo = o;			/* Temporary values */

	b4tick = tickskip;
	while (ndigits > 0) {
		if (!b4tick--) {
  400aec:	84 81 00 04 	l.lwz r4,0x4(r1)
  400af0:	bc 04 00 00 	l.sfeqi r4,0x0
  400af4:	10 00 00 04 	l.bf 400b04 <vsnprintf+0x72c>
  400af8:	84 a1 00 0c 	l.lwz r5,0xc(r1)
  400afc:	00 00 00 10 	l.j 400b3c <vsnprintf+0x764>
  400b00:	9c 84 ff ff 	l.addi r4,r4,0xffffffff
			qq--;
			oo--;
  400b04:	84 c1 00 10 	l.lwz r6,0x10(r1)
			ndigits--;
  400b08:	84 e1 00 00 	l.lwz r7,0x0(r1)

	b4tick = tickskip;
	while (ndigits > 0) {
		if (!b4tick--) {
			qq--;
			oo--;
  400b0c:	9c c6 ff ff 	l.addi r6,r6,0xffffffff
	oo = o;			/* Temporary values */

	b4tick = tickskip;
	while (ndigits > 0) {
		if (!b4tick--) {
			qq--;
  400b10:	9c a5 ff ff 	l.addi r5,r5,0xffffffff
			oo--;
			ndigits--;
  400b14:	9c e7 ff ff 	l.addi r7,r7,0xffffffff
	oo = o;			/* Temporary values */

	b4tick = tickskip;
	while (ndigits > 0) {
		if (!b4tick--) {
			qq--;
  400b18:	d4 01 28 0c 	l.sw 0xc(r1),r5
			oo--;
  400b1c:	d4 01 30 10 	l.sw 0x10(r1),r6
			ndigits--;
			if (oo < n)
  400b20:	e4 66 e0 00 	l.sfgeu r6,r28
  400b24:	10 00 00 04 	l.bf 400b34 <vsnprintf+0x75c>
  400b28:	d4 01 38 00 	l.sw 0x0(r1),r7
				*qq = '_';
  400b2c:	9c 60 00 5f 	l.addi r3,r0,0x5f
  400b30:	d8 05 18 00 	l.sb 0x0(r5),r3
			b4tick = tickskip - 1;
  400b34:	84 81 00 30 	l.lwz r4,0x30(r1)
		}
		qq--;
  400b38:	84 a1 00 0c 	l.lwz r5,0xc(r1)
		oo--;
  400b3c:	84 c1 00 10 	l.lwz r6,0x10(r1)
		ndigits--;
  400b40:	84 e1 00 00 	l.lwz r7,0x0(r1)
			if (oo < n)
				*qq = '_';
			b4tick = tickskip - 1;
		}
		qq--;
		oo--;
  400b44:	9c c6 ff ff 	l.addi r6,r6,0xffffffff
			ndigits--;
			if (oo < n)
				*qq = '_';
			b4tick = tickskip - 1;
		}
		qq--;
  400b48:	9c a5 ff ff 	l.addi r5,r5,0xffffffff
		oo--;
		ndigits--;
  400b4c:	9c e7 ff ff 	l.addi r7,r7,0xffffffff
			qq--;
			oo--;
			ndigits--;
			if (oo < n)
				*qq = '_';
			b4tick = tickskip - 1;
  400b50:	d4 01 20 04 	l.sw 0x4(r1),r4
		}
		qq--;
  400b54:	d4 01 28 0c 	l.sw 0xc(r1),r5
		oo--;
  400b58:	d4 01 30 10 	l.sw 0x10(r1),r6
		ndigits--;
		if (oo < n)
  400b5c:	e4 66 e0 00 	l.sfgeu r6,r28
  400b60:	10 00 00 0a 	l.bf 400b88 <vsnprintf+0x7b0>
  400b64:	d4 01 38 00 	l.sw 0x0(r1),r7
			*qq = digits[val % base];
  400b68:	84 61 00 1c 	l.lwz r3,0x1c(r1)
  400b6c:	07 ff fd a7 	l.jal 400208 <__umodsi3>
  400b70:	a8 9a 00 00 	l.ori r4,r26,0x0
  400b74:	84 61 00 28 	l.lwz r3,0x28(r1)
  400b78:	84 81 00 0c 	l.lwz r4,0xc(r1)
  400b7c:	e1 63 58 00 	l.add r11,r3,r11
  400b80:	8d 6b 00 00 	l.lbz r11,0x0(r11)
  400b84:	d8 04 58 00 	l.sb 0x0(r4),r11
		val /= base;
  400b88:	84 61 00 1c 	l.lwz r3,0x1c(r1)
  400b8c:	07 ff fd 46 	l.jal 4000a4 <__udivsi3>
  400b90:	a8 9a 00 00 	l.ori r4,r26,0x0
  400b94:	d4 01 58 1c 	l.sw 0x1c(r1),r11
	o += ndigits;
	qq = q;
	oo = o;			/* Temporary values */

	b4tick = tickskip;
	while (ndigits > 0) {
  400b98:	84 a1 00 00 	l.lwz r5,0x0(r1)
  400b9c:	bd 45 00 00 	l.sfgtsi r5,0x0
  400ba0:	13 ff ff d3 	l.bf 400aec <vsnprintf+0x714>
  400ba4:	b8 8e 00 41 	l.srli r4,r14,0x1
			*qq = digits[val % base];
		val /= base;
	}

	/* Emit late space padding */
	while ((flags & FL_MINUS) && width > nchars) {
  400ba8:	00 00 00 0e 	l.j 400be0 <vsnprintf+0x808>
  400bac:	a4 84 00 01 	l.andi r4,r4,0x1
		EMIT(' ');
  400bb0:	e4 66 e0 00 	l.sfgeu r6,r28
  400bb4:	10 00 00 08 	l.bf 400bd4 <vsnprintf+0x7fc>
  400bb8:	84 a1 00 14 	l.lwz r5,0x14(r1)
  400bbc:	84 e1 00 24 	l.lwz r7,0x24(r1)
  400bc0:	9c 60 00 20 	l.addi r3,r0,0x20
  400bc4:	d8 07 18 00 	l.sb 0x0(r7),r3
  400bc8:	9c e7 00 01 	l.addi r7,r7,0x1
  400bcc:	d4 01 38 24 	l.sw 0x24(r1),r7
  400bd0:	84 a1 00 14 	l.lwz r5,0x14(r1)
		width--;
  400bd4:	9f de ff ff 	l.addi r30,r30,0xffffffff
		val /= base;
	}

	/* Emit late space padding */
	while ((flags & FL_MINUS) && width > nchars) {
		EMIT(' ');
  400bd8:	9c a5 00 01 	l.addi r5,r5,0x1
  400bdc:	d4 01 28 14 	l.sw 0x14(r1),r5
			*qq = digits[val % base];
		val /= base;
	}

	/* Emit late space padding */
	while ((flags & FL_MINUS) && width > nchars) {
  400be0:	84 c1 00 18 	l.lwz r6,0x18(r1)
  400be4:	e5 5e 30 00 	l.sfgts r30,r6
  400be8:	10 00 00 03 	l.bf 400bf4 <vsnprintf+0x81c>
  400bec:	9c 60 00 01 	l.addi r3,r0,0x1
  400bf0:	9c 60 00 00 	l.addi r3,r0,0x0
  400bf4:	a4 63 00 ff 	l.andi r3,r3,0xff
  400bf8:	bc 03 00 00 	l.sfeqi r3,0x0
  400bfc:	10 00 00 04 	l.bf 400c0c <vsnprintf+0x834>
  400c00:	bc 24 00 00 	l.sfnei r4,0x0
  400c04:	13 ff ff eb 	l.bf 400bb0 <vsnprintf+0x7d8>
  400c08:	84 c1 00 14 	l.lwz r6,0x14(r1)

				is_integer:
					sz = format_int(q, (o < n) ? n - o : 0,
							val, flags, base,
							width, prec);
					q += sz;
  400c0c:	84 e1 00 14 	l.lwz r7,0x14(r1)
  400c10:	e2 d6 38 00 	l.add r22,r22,r7
					o += sz;
  400c14:	00 00 00 87 	l.j 400e30 <vsnprintf+0xa58>
  400c18:	e2 52 38 00 	l.add r18,r18,r7
					break;

				case 'c':	/* Character */
					carg = (char)va_arg(ap, int);
  400c1c:	84 62 00 00 	l.lwz r3,0x0(r2)
					sarg = &carg;
					slen = 1;
  400c20:	9d 60 00 01 	l.addi r11,r0,0x1
					q += sz;
					o += sz;
					break;

				case 'c':	/* Character */
					carg = (char)va_arg(ap, int);
  400c24:	d8 01 18 37 	l.sb 0x37(r1),r3
  400c28:	9c 42 00 04 	l.addi r2,r2,0x4
					sarg = &carg;
					slen = 1;
					goto is_string;
  400c2c:	00 00 00 0b 	l.j 400c58 <vsnprintf+0x880>
  400c30:	9f 41 00 37 	l.addi r26,r1,0x37
				case 's':	/* String */
					sarg = va_arg(ap, const char *);
  400c34:	87 42 00 00 	l.lwz r26,0x0(r2)
					sarg = sarg ? sarg : "(null)";
  400c38:	bc 3a 00 00 	l.sfnei r26,0x0
  400c3c:	10 00 00 04 	l.bf 400c4c <vsnprintf+0x874>
  400c40:	9f 82 00 04 	l.addi r28,r2,0x4
  400c44:	1b 40 00 41 	l.movhi r26,0x41
  400c48:	ab 5a 77 48 	l.ori r26,r26,0x7748
					slen = strlen(sarg);
  400c4c:	a8 7a 00 00 	l.ori r3,r26,0x0
  400c50:	07 ff fd a9 	l.jal 4002f4 <strlen>
  400c54:	a8 5c 00 00 	l.ori r2,r28,0x0
				is_string:
					{
						char sch;
						int i;

						if (prec != -1 && slen > prec)
  400c58:	e5 4b c0 00 	l.sfgts r11,r24
  400c5c:	10 00 00 03 	l.bf 400c68 <vsnprintf+0x890>
  400c60:	9c 60 00 01 	l.addi r3,r0,0x1
  400c64:	9c 60 00 00 	l.addi r3,r0,0x0
  400c68:	a4 63 00 ff 	l.andi r3,r3,0xff
  400c6c:	bc 03 00 00 	l.sfeqi r3,0x0
  400c70:	10 00 00 0a 	l.bf 400c98 <vsnprintf+0x8c0>
  400c74:	e5 b4 58 00 	l.sfles r20,r11
  400c78:	ac 78 ff ff 	l.xori r3,r24,0xffffffff
  400c7c:	e0 80 18 02 	l.sub r4,r0,r3
  400c80:	e0 64 18 04 	l.or r3,r4,r3
  400c84:	bd 63 00 00 	l.sfgesi r3,0x0
  400c88:	10 00 00 04 	l.bf 400c98 <vsnprintf+0x8c0>
  400c8c:	e5 b4 58 00 	l.sfles r20,r11
  400c90:	a9 78 00 00 	l.ori r11,r24,0x0
							slen = prec;

						if (width > slen
  400c94:	e5 b4 58 00 	l.sfles r20,r11
  400c98:	10 00 00 1f 	l.bf 400d14 <vsnprintf+0x93c>
  400c9c:	a8 8b 00 00 	l.ori r4,r11,0x0
						    && !(flags & FL_MINUS)) {
  400ca0:	a4 6e 00 02 	l.andi r3,r14,0x2
  400ca4:	bc 23 00 00 	l.sfnei r3,0x0
  400ca8:	10 00 00 26 	l.bf 400d40 <vsnprintf+0x968>
  400cac:	9c a0 00 00 	l.addi r5,r0,0x0
							char pad =
							    (flags & FL_ZERO) ?
  400cb0:	a4 8e 00 01 	l.andi r4,r14,0x1
						if (prec != -1 && slen > prec)
							slen = prec;

						if (width > slen
						    && !(flags & FL_MINUS)) {
							char pad =
  400cb4:	bc 04 00 00 	l.sfeqi r4,0x0
  400cb8:	10 00 00 03 	l.bf 400cc4 <vsnprintf+0x8ec>
  400cbc:	9c 60 00 20 	l.addi r3,r0,0x20
  400cc0:	9c 60 00 30 	l.addi r3,r0,0x30
  400cc4:	a8 b4 00 00 	l.ori r5,r20,0x0
  400cc8:	a8 92 00 00 	l.ori r4,r18,0x0
							    (flags & FL_ZERO) ?
							    '0' : ' ';
							while (width > slen) {
								EMIT(pad);
  400ccc:	84 c1 00 08 	l.lwz r6,0x8(r1)
  400cd0:	e4 64 30 00 	l.sfgeu r4,r6
  400cd4:	10 00 00 04 	l.bf 400ce4 <vsnprintf+0x90c>
  400cd8:	15 00 00 00 	l.nop 0x0
  400cdc:	d8 16 18 00 	l.sb 0x0(r22),r3
  400ce0:	9e d6 00 01 	l.addi r22,r22,0x1
								width--;
  400ce4:	9c a5 ff ff 	l.addi r5,r5,0xffffffff
						if (width > slen
						    && !(flags & FL_MINUS)) {
							char pad =
							    (flags & FL_ZERO) ?
							    '0' : ' ';
							while (width > slen) {
  400ce8:	e5 45 58 00 	l.sfgts r5,r11
  400cec:	13 ff ff f8 	l.bf 400ccc <vsnprintf+0x8f4>
  400cf0:	9c 84 00 01 	l.addi r4,r4,0x1
               _ATTRIBUTE ((__format__ (__printf__, 2, 0))));
int	_EXFUN(vsiscanf, (const char *, const char *, __VALIST)
               _ATTRIBUTE ((__format__ (__scanf__, 2, 0))));
int	_EXFUN(vsniprintf, (char *, size_t, const char *, __VALIST)
               _ATTRIBUTE ((__format__ (__printf__, 3, 0))));
int	_EXFUN(vsnprintf, (char *, size_t, const char *, __VALIST)
  400cf4:	9c e0 00 01 	l.addi r7,r0,0x1
  400cf8:	e2 54 90 00 	l.add r18,r20,r18
  400cfc:	9c 74 ff ff 	l.addi r3,r20,0xffffffff
  400d00:	e2 87 a0 02 	l.sub r20,r7,r20
  400d04:	e2 52 58 02 	l.sub r18,r18,r11
  400d08:	e2 94 58 00 	l.add r20,r20,r11
  400d0c:	e2 83 a0 00 	l.add r20,r3,r20
								EMIT(pad);
								width--;
							}
						}
						for (i = slen; i; i--) {
  400d10:	a8 8b 00 00 	l.ori r4,r11,0x0
  400d14:	00 00 00 0b 	l.j 400d40 <vsnprintf+0x968>
  400d18:	9c a0 00 00 	l.addi r5,r0,0x0
							sch = *sarg++;
							EMIT(sch);
  400d1c:	e0 c5 90 00 	l.add r6,r5,r18
  400d20:	84 e1 00 08 	l.lwz r7,0x8(r1)
  400d24:	e4 66 38 00 	l.sfgeu r6,r7
  400d28:	10 00 00 04 	l.bf 400d38 <vsnprintf+0x960>
  400d2c:	90 63 00 00 	l.lbs r3,0x0(r3)
  400d30:	d8 16 18 00 	l.sb 0x0(r22),r3
  400d34:	9e d6 00 01 	l.addi r22,r22,0x1
							while (width > slen) {
								EMIT(pad);
								width--;
							}
						}
						for (i = slen; i; i--) {
  400d38:	9c 84 ff ff 	l.addi r4,r4,0xffffffff
  400d3c:	9c a5 00 01 	l.addi r5,r5,0x1
  400d40:	bc 24 00 00 	l.sfnei r4,0x0
  400d44:	13 ff ff f6 	l.bf 400d1c <vsnprintf+0x944>
  400d48:	e0 7a 28 00 	l.add r3,r26,r5
  400d4c:	e2 52 58 00 	l.add r18,r18,r11
							sch = *sarg++;
							EMIT(sch);
						}
						if (width > slen
  400d50:	e5 b4 58 00 	l.sfles r20,r11
  400d54:	10 00 00 55 	l.bf 400ea8 <vsnprintf+0xad0>
  400d58:	a8 e4 00 00 	l.ori r7,r4,0x0
						    && (flags & FL_MINUS)) {
  400d5c:	a4 6e 00 02 	l.andi r3,r14,0x2
  400d60:	bc 03 00 00 	l.sfeqi r3,0x0
  400d64:	10 00 00 52 	l.bf 400eac <vsnprintf+0xad4>
  400d68:	84 a1 00 20 	l.lwz r5,0x20(r1)
  400d6c:	a8 b4 00 00 	l.ori r5,r20,0x0
  400d70:	a8 92 00 00 	l.ori r4,r18,0x0
							while (width > slen) {
								EMIT(' ');
  400d74:	84 61 00 08 	l.lwz r3,0x8(r1)
  400d78:	e4 64 18 00 	l.sfgeu r4,r3
  400d7c:	10 00 00 04 	l.bf 400d8c <vsnprintf+0x9b4>
  400d80:	9c c0 00 20 	l.addi r6,r0,0x20
  400d84:	d8 16 30 00 	l.sb 0x0(r22),r6
  400d88:	9e d6 00 01 	l.addi r22,r22,0x1
								width--;
  400d8c:	9c a5 ff ff 	l.addi r5,r5,0xffffffff
							sch = *sarg++;
							EMIT(sch);
						}
						if (width > slen
						    && (flags & FL_MINUS)) {
							while (width > slen) {
  400d90:	e5 45 58 00 	l.sfgts r5,r11
  400d94:	13 ff ff f8 	l.bf 400d74 <vsnprintf+0x99c>
  400d98:	9c 84 00 01 	l.addi r4,r4,0x1
  400d9c:	e2 54 90 00 	l.add r18,r20,r18
  400da0:	9c 74 ff ff 	l.addi r3,r20,0xffffffff
  400da4:	e2 52 58 02 	l.sub r18,r18,r11
  400da8:	9d 6b 00 01 	l.addi r11,r11,0x1
  400dac:	e2 8b a0 02 	l.sub r20,r11,r20
  400db0:	00 00 00 20 	l.j 400e30 <vsnprintf+0xa58>
  400db4:	e2 83 a0 00 	l.add r20,r3,r20
				case 'n':
					{
						/* Output the number of
						   characters written */

						switch (rank) {
  400db8:	bc 10 00 00 	l.sfeqi r16,0x0
  400dbc:	10 00 00 16 	l.bf 400e14 <vsnprintf+0xa3c>
  400dc0:	a8 f0 00 00 	l.ori r7,r16,0x0
  400dc4:	bd 50 00 00 	l.sfgtsi r16,0x0
  400dc8:	10 00 00 07 	l.bf 400de4 <vsnprintf+0xa0c>
  400dcc:	bc 10 00 01 	l.sfeqi r16,0x1
  400dd0:	bc 10 ff ff 	l.sfeqi r16,0xffffffff
  400dd4:	0c 00 00 08 	l.bnf 400df4 <vsnprintf+0xa1c>
  400dd8:	15 00 00 00 	l.nop 0x0
							*va_arg(ap,
								signed char *)
								= o;
							break;
						case rank_short:
							*va_arg(ap,
  400ddc:	00 00 00 0c 	l.j 400e0c <vsnprintf+0xa34>
  400de0:	84 62 00 00 	l.lwz r3,0x0(r2)
				case 'n':
					{
						/* Output the number of
						   characters written */

						switch (rank) {
  400de4:	10 00 00 10 	l.bf 400e24 <vsnprintf+0xa4c>
  400de8:	bc 10 00 02 	l.sfeqi r16,0x2
  400dec:	10 00 00 13 	l.bf 400e38 <vsnprintf+0xa60>
  400df0:	15 00 00 00 	l.nop 0x0
						case rank_char:
							*va_arg(ap,
  400df4:	84 62 00 00 	l.lwz r3,0x0(r2)
				break;
			default:
				/* Output modifiers - terminal sequences */

				/* Next state will be normal */
				state = st_normal;
  400df8:	9c e0 00 00 	l.addi r7,r0,0x0

						switch (rank) {
						case rank_char:
							*va_arg(ap,
								signed char *)
								= o;
  400dfc:	d8 03 90 00 	l.sb 0x0(r3),r18
						/* Output the number of
						   characters written */

						switch (rank) {
						case rank_char:
							*va_arg(ap,
  400e00:	9c 42 00 04 	l.addi r2,r2,0x4
								signed char *)
								= o;
							break;
  400e04:	00 00 00 29 	l.j 400ea8 <vsnprintf+0xad0>
  400e08:	9e 00 ff fe 	l.addi r16,r0,0xfffffffe
						case rank_short:
							*va_arg(ap,
								signed short *)
								= o;
  400e0c:	00 00 00 08 	l.j 400e2c <vsnprintf+0xa54>
  400e10:	dc 03 90 00 	l.sh 0x0(r3),r18
							break;
						case rank_int:
							*va_arg(ap,
  400e14:	84 62 00 00 	l.lwz r3,0x0(r2)
								signed int *)
								= o;
  400e18:	d4 03 90 00 	l.sw 0x0(r3),r18
							break;
  400e1c:	00 00 00 23 	l.j 400ea8 <vsnprintf+0xad0>
  400e20:	9c 42 00 04 	l.addi r2,r2,0x4
						case rank_long:
							*va_arg(ap,
  400e24:	84 62 00 00 	l.lwz r3,0x0(r2)
								signed long *)
								= o;
  400e28:	d4 03 90 00 	l.sw 0x0(r3),r18
							*va_arg(ap,
								signed int *)
								= o;
							break;
						case rank_long:
							*va_arg(ap,
  400e2c:	9c 42 00 04 	l.addi r2,r2,0x4
								signed long *)
								= o;
							break;
  400e30:	00 00 00 1e 	l.j 400ea8 <vsnprintf+0xad0>
  400e34:	9c e0 00 00 	l.addi r7,r0,0x0
						case rank_longlong:
							*va_arg(ap,
  400e38:	84 62 00 00 	l.lwz r3,0x0(r2)
								signed long long *)
								= o;
  400e3c:	9c e0 00 00 	l.addi r7,r0,0x0
  400e40:	d4 03 90 04 	l.sw 0x4(r3),r18
  400e44:	d4 03 38 00 	l.sw 0x0(r3),r7
							break;
  400e48:	00 00 00 18 	l.j 400ea8 <vsnprintf+0xad0>
  400e4c:	9c 42 00 04 	l.addi r2,r2,0x4
						}
					}
					break;

				default:	/* Anything else, including % */
					EMIT(ch);
  400e50:	e4 72 18 00 	l.sfgeu r18,r3
  400e54:	10 00 00 04 	l.bf 400e64 <vsnprintf+0xa8c>
  400e58:	15 00 00 00 	l.nop 0x0
  400e5c:	d8 16 30 00 	l.sb 0x0(r22),r6
  400e60:	9e d6 00 01 	l.addi r22,r22,0x1
  400e64:	03 ff ff f3 	l.j 400e30 <vsnprintf+0xa58>
  400e68:	9e 52 00 01 	l.addi r18,r18,0x1
	while ((ch = *p++)) {
		switch (state) {
		case st_normal:
			if (ch == '%') {
				state = st_flags;
				flags = 0;
  400e6c:	9d c0 00 00 	l.addi r14,r0,0x0

	while ((ch = *p++)) {
		switch (state) {
		case st_normal:
			if (ch == '%') {
				state = st_flags;
  400e70:	9c e0 00 01 	l.addi r7,r0,0x1
				flags = 0;
				rank = rank_int;
				width = 0;
				prec = -1;
  400e74:	9f 00 ff ff 	l.addi r24,r0,0xffffffff
		case st_normal:
			if (ch == '%') {
				state = st_flags;
				flags = 0;
				rank = rank_int;
				width = 0;
  400e78:	aa 8e 00 00 	l.ori r20,r14,0x0
		switch (state) {
		case st_normal:
			if (ch == '%') {
				state = st_flags;
				flags = 0;
				rank = rank_int;
  400e7c:	00 00 00 0b 	l.j 400ea8 <vsnprintf+0xad0>
  400e80:	aa 0e 00 00 	l.ori r16,r14,0x0
				EMIT(ch);
			}
			break;

		case st_flags:
			switch (ch) {
  400e84:	d4 01 28 20 	l.sw 0x20(r1),r5
				break;
			case '0':
				flags |= FL_ZERO;
				break;
			default:
				state = st_width;
  400e88:	00 00 00 08 	l.j 400ea8 <vsnprintf+0xad0>
  400e8c:	9c e0 00 02 	l.addi r7,r0,0x2
			break;

		case st_prec:
			if (ch >= '0' && ch <= '9') {
				prec = prec * 10 + (ch - '0');
			} else if (ch == '*') {
  400e90:	d4 01 28 20 	l.sw 0x20(r1),r5
				prec = va_arg(ap, int);
				if (prec < 0)
					prec = -1;
			} else {
				state = st_modifiers;
  400e94:	00 00 00 05 	l.j 400ea8 <vsnprintf+0xad0>
  400e98:	9c e0 00 04 	l.addi r7,r0,0x4
			if (ch >= '0' && ch <= '9') {
				prec = prec * 10 + (ch - '0');
			} else if (ch == '*') {
				prec = va_arg(ap, int);
				if (prec < 0)
					prec = -1;
  400e9c:	00 00 00 04 	l.j 400eac <vsnprintf+0xad4>
  400ea0:	84 a1 00 20 	l.lwz r5,0x20(r1)
				break;
			case 'j':
				rank = INTMAX_RANK;
				break;
			case 'z':
				rank = SIZE_T_RANK;
  400ea4:	9e 00 00 01 	l.addi r16,r0,0x1
			if (ch >= '0' && ch <= '9') {
				prec = prec * 10 + (ch - '0');
			} else if (ch == '*') {
				prec = va_arg(ap, int);
				if (prec < 0)
					prec = -1;
  400ea8:	84 a1 00 20 	l.lwz r5,0x20(r1)
	} state = st_normal;
	const char *sarg;	/* %s string argument */
	char carg;		/* %c char argument */
	int slen;		/* String length */

	while ((ch = *p++)) {
  400eac:	9c 85 00 01 	l.addi r4,r5,0x1
  400eb0:	90 c5 00 00 	l.lbs r6,0x0(r5)
  400eb4:	bc 26 00 00 	l.sfnei r6,0x0
  400eb8:	13 ff fd 5f 	l.bf 400434 <vsnprintf+0x5c>
  400ebc:	d4 01 20 20 	l.sw 0x20(r1),r4
			}
		}
	}

	/* Null-terminate the string */
	if (o < n)
  400ec0:	84 a1 00 08 	l.lwz r5,0x8(r1)
  400ec4:	e4 72 28 00 	l.sfgeu r18,r5
  400ec8:	10 00 00 04 	l.bf 400ed8 <vsnprintf+0xb00>
  400ecc:	15 00 00 00 	l.nop 0x0
		*q = '\0';	/* No overflow */
  400ed0:	00 00 00 08 	l.j 400ef0 <vsnprintf+0xb18>
  400ed4:	d8 16 30 00 	l.sb 0x0(r22),r6
	else if (n > 0)
  400ed8:	84 e1 00 08 	l.lwz r7,0x8(r1)
  400edc:	bc 07 00 00 	l.sfeqi r7,0x0
  400ee0:	10 00 00 04 	l.bf 400ef0 <vsnprintf+0xb18>
  400ee4:	84 61 00 2c 	l.lwz r3,0x2c(r1)
		buffer[n - 1] = '\0';	/* Overflow - terminate at end of buffer */
  400ee8:	e0 43 38 00 	l.add r2,r3,r7
  400eec:	db e2 37 ff 	l.sb 0xffffffff(r2),r6

	return o;
}
  400ef0:	9c 21 00 64 	l.addi r1,r1,0x64
  400ef4:	a9 72 00 00 	l.ori r11,r18,0x0
  400ef8:	85 21 ff fc 	l.lwz r9,0xfffffffc(r1)
  400efc:	84 41 ff d4 	l.lwz r2,0xffffffd4(r1)
  400f00:	85 c1 ff d8 	l.lwz r14,0xffffffd8(r1)
  400f04:	86 01 ff dc 	l.lwz r16,0xffffffdc(r1)
  400f08:	86 41 ff e0 	l.lwz r18,0xffffffe0(r1)
  400f0c:	86 81 ff e4 	l.lwz r20,0xffffffe4(r1)
  400f10:	86 c1 ff e8 	l.lwz r22,0xffffffe8(r1)
  400f14:	87 01 ff ec 	l.lwz r24,0xffffffec(r1)
  400f18:	87 41 ff f0 	l.lwz r26,0xfffffff0(r1)
  400f1c:	87 81 ff f4 	l.lwz r28,0xfffffff4(r1)
  400f20:	44 00 48 00 	l.jr r9
  400f24:	87 c1 ff f8 	l.lwz r30,0xfffffff8(r1)

00400f28 <GetTimer>:
//// timer ////
unsigned long GetTimer(unsigned long offset)
{
  DEBUG_FUNC_IN(DEBUG_F_HARDWARE | DEBUG_L3);

  unsigned long systimer = TIMER_get();
  400f28:	18 80 00 80 	l.movhi r4,0x80
  400f2c:	a8 84 00 18 	l.ori r4,r4,0x18
  400f30:	84 84 00 00 	l.lwz r4,0x0(r4)
  systimer = systimer<< 16;
  systimer += offset << 16;
  400f34:	e0 63 20 00 	l.add r3,r3,r4
  return (systimer); // valid bits [31:16]

  DEBUG_FUNC_OUT(DEBUG_F_HARDWARE | DEBUG_L3);
}
  400f38:	44 00 48 00 	l.jr r9
  400f3c:	b9 63 00 10 	l.slli r11,r3,0x10

00400f40 <CheckTimer>:

unsigned long CheckTimer(unsigned long time)
{
  DEBUG_FUNC_IN(DEBUG_F_HARDWARE | DEBUG_L3);

  unsigned long systimer = TIMER_get();
  400f40:	18 80 00 80 	l.movhi r4,0x80
  400f44:	a8 84 00 18 	l.ori r4,r4,0x18
  400f48:	84 84 00 00 	l.lwz r4,0x0(r4)
  systimer = systimer<< 16;
  400f4c:	b8 84 00 10 	l.slli r4,r4,0x10
  time -= systimer;
  400f50:	e0 63 20 02 	l.sub r3,r3,r4
  if(time & 0x80000000) return(1);
  return(0);

  DEBUG_FUNC_OUT(DEBUG_F_HARDWARE | DEBUG_L3);
}
  400f54:	44 00 48 00 	l.jr r9
  400f58:	b9 63 00 5f 	l.srli r11,r3,0x1f

00400f5c <BootUploadLogo>:
}


//// BootUploadLogo() ////
void BootUploadLogo()
{
  400f5c:	d7 e1 4f fc 	l.sw 0xfffffffc(r1),r9
  400f60:	d7 e1 17 d4 	l.sw 0xffffffd4(r1),r2
  400f64:	d7 e1 77 d8 	l.sw 0xffffffd8(r1),r14
  400f68:	d7 e1 87 dc 	l.sw 0xffffffdc(r1),r16
  400f6c:	d7 e1 97 e0 	l.sw 0xffffffe0(r1),r18
  400f70:	d7 e1 a7 e4 	l.sw 0xffffffe4(r1),r20
  400f74:	d7 e1 b7 e8 	l.sw 0xffffffe8(r1),r22
  400f78:	d7 e1 c7 ec 	l.sw 0xffffffec(r1),r24
  400f7c:	d7 e1 d7 f0 	l.sw 0xfffffff0(r1),r26
  400f80:	d7 e1 e7 f4 	l.sw 0xfffffff4(r1),r28
  400f84:	d7 e1 f7 f8 	l.sw 0xfffffff8(r1),r30
  RAFile file;
  int x,y;
  int i=0;
  int adr;

  if (RAOpen(&file, LOGO_FILE)) {
  400f88:	18 80 00 41 	l.movhi r4,0x41
}


//// BootUploadLogo() ////
void BootUploadLogo()
{
  400f8c:	9c 21 fc a0 	l.addi r1,r1,0xfffffca0
  RAFile file;
  int x,y;
  int i=0;
  int adr;

  if (RAOpen(&file, LOGO_FILE)) {
  400f90:	a8 84 77 4f 	l.ori r4,r4,0x774f
  400f94:	04 00 21 84 	l.jal 4095a4 <RAOpen>
  400f98:	a8 61 00 00 	l.ori r3,r1,0x0
  400f9c:	bc 0b 00 00 	l.sfeqi r11,0x0
  400fa0:	10 00 02 46 	l.bf 4018b8 <BootUploadLogo+0x95c>
  400fa4:	1b 40 00 40 	l.movhi r26,0x40
    RARead(&file, sector_buffer, 512);
  400fa8:	18 80 00 41 	l.movhi r4,0x41
  400fac:	a8 61 00 00 	l.ori r3,r1,0x0
  400fb0:	a8 84 a4 dc 	l.ori r4,r4,0xa4dc
  400fb4:	9c a0 02 00 	l.addi r5,r0,0x200
  400fb8:	ab 5a 56 a4 	l.ori r26,r26,0x56a4
  400fbc:	48 00 d0 00 	l.jalr r26
  400fc0:	18 40 00 80 	l.movhi r2,0x80
    MEM_UPLOAD_INIT(SCREEN_BPL1+LOGO_OFFSET);
  400fc4:	ab 02 00 20 	l.ori r24,r2,0x20
  400fc8:	9c e0 00 44 	l.addi r7,r0,0x44
  400fcc:	a9 c2 00 24 	l.ori r14,r2,0x24
  400fd0:	9c c0 00 1c 	l.addi r6,r0,0x1c
  400fd4:	d4 18 38 00 	l.sw 0x0(r24),r7
  400fd8:	d4 0e 30 00 	l.sw 0x0(r14),r6
  400fdc:	9c 80 00 08 	l.addi r4,r0,0x8
  400fe0:	84 6e 00 00 	l.lwz r3,0x0(r14)
  400fe4:	9c 60 00 18 	l.addi r3,r0,0x18
  400fe8:	1a 00 00 08 	l.movhi r16,0x8
  400fec:	d4 0e 18 00 	l.sw 0x0(r14),r3
  400ff0:	aa 50 14 68 	l.ori r18,r16,0x1468
  400ff4:	84 6e 00 00 	l.lwz r3,0x0(r14)
  400ff8:	9c 60 00 14 	l.addi r3,r0,0x14
    adr = SCREEN_BPL1+LOGO_OFFSET;
  400ffc:	aa 10 14 18 	l.ori r16,r16,0x1418
  int i=0;
  int adr;

  if (RAOpen(&file, LOGO_FILE)) {
    RARead(&file, sector_buffer, 512);
    MEM_UPLOAD_INIT(SCREEN_BPL1+LOGO_OFFSET);
  401000:	d4 0e 18 00 	l.sw 0x0(r14),r3
//// BootUploadLogo() ////
void BootUploadLogo()
{
  RAFile file;
  int x,y;
  int i=0;
  401004:	9c a0 00 00 	l.addi r5,r0,0x0
  int adr;

  if (RAOpen(&file, LOGO_FILE)) {
    RARead(&file, sector_buffer, 512);
    MEM_UPLOAD_INIT(SCREEN_BPL1+LOGO_OFFSET);
  401008:	84 6e 00 00 	l.lwz r3,0x0(r14)
  40100c:	d4 0e 20 00 	l.sw 0x0(r14),r4
    adr = SCREEN_BPL1+LOGO_OFFSET;
    for (y=0; y<LOGO_HEIGHT; y++) {
      for (x=0; x<LOGO_WIDTH/16; x++) {
        if (i == 512) {
          MEM_UPLOAD_FINI();
  401010:	e0 42 30 04 	l.or r2,r2,r6
  int i=0;
  int adr;

  if (RAOpen(&file, LOGO_FILE)) {
    RARead(&file, sector_buffer, 512);
    MEM_UPLOAD_INIT(SCREEN_BPL1+LOGO_OFFSET);
  401014:	84 6e 00 00 	l.lwz r3,0x0(r14)
  401018:	9c 60 00 00 	l.addi r3,r0,0x0
        SPIN(); SPIN(); SPIN(); SPIN();
        //for (tmp=0; tmp<0x80000; tmp++);
        //printf("i=%03d  x=%03d  y=%03d  dat[0]=0x%08x  dat[1]=0x%08x\r", i, x, y, sector_buffer[i], sector_buffer[i+1]);
        adr += 2;
      }
      MEM_UPLOAD_FINI();
  40101c:	aa 98 00 00 	l.ori r20,r24,0x0
  int i=0;
  int adr;

  if (RAOpen(&file, LOGO_FILE)) {
    RARead(&file, sector_buffer, 512);
    MEM_UPLOAD_INIT(SCREEN_BPL1+LOGO_OFFSET);
  401020:	d4 0e 18 00 	l.sw 0x0(r14),r3
  401024:	84 6e 00 00 	l.lwz r3,0x0(r14)
  401028:	9e c0 00 0d 	l.addi r22,r0,0xd
    adr = SCREEN_BPL1+LOGO_OFFSET;
    for (y=0; y<LOGO_HEIGHT; y++) {
      for (x=0; x<LOGO_WIDTH/16; x++) {
        if (i == 512) {
  40102c:	bc 25 02 00 	l.sfnei r5,0x200
  401030:	10 00 00 4b 	l.bf 40115c <BootUploadLogo+0x200>
  401034:	9c 80 00 40 	l.addi r4,r0,0x40
          MEM_UPLOAD_FINI();
  401038:	d4 18 20 00 	l.sw 0x0(r24),r4
          RARead(&file, sector_buffer, 512);
  40103c:	18 80 00 41 	l.movhi r4,0x41
    MEM_UPLOAD_INIT(SCREEN_BPL1+LOGO_OFFSET);
    adr = SCREEN_BPL1+LOGO_OFFSET;
    for (y=0; y<LOGO_HEIGHT; y++) {
      for (x=0; x<LOGO_WIDTH/16; x++) {
        if (i == 512) {
          MEM_UPLOAD_FINI();
  401040:	84 62 00 00 	l.lwz r3,0x0(r2)
  401044:	84 62 00 00 	l.lwz r3,0x0(r2)
  401048:	84 62 00 00 	l.lwz r3,0x0(r2)
  40104c:	84 62 00 00 	l.lwz r3,0x0(r2)
  401050:	84 62 00 00 	l.lwz r3,0x0(r2)
  401054:	84 62 00 00 	l.lwz r3,0x0(r2)
  401058:	84 62 00 00 	l.lwz r3,0x0(r2)
  40105c:	84 62 00 00 	l.lwz r3,0x0(r2)
  401060:	84 62 00 00 	l.lwz r3,0x0(r2)
  401064:	84 62 00 00 	l.lwz r3,0x0(r2)
  401068:	84 62 00 00 	l.lwz r3,0x0(r2)
  40106c:	84 62 00 00 	l.lwz r3,0x0(r2)
  401070:	84 62 00 00 	l.lwz r3,0x0(r2)
  401074:	84 62 00 00 	l.lwz r3,0x0(r2)
  401078:	84 62 00 00 	l.lwz r3,0x0(r2)
  40107c:	84 62 00 00 	l.lwz r3,0x0(r2)
  401080:	84 62 00 00 	l.lwz r3,0x0(r2)
  401084:	84 62 00 00 	l.lwz r3,0x0(r2)
  401088:	84 62 00 00 	l.lwz r3,0x0(r2)
  40108c:	84 62 00 00 	l.lwz r3,0x0(r2)
  401090:	84 62 00 00 	l.lwz r3,0x0(r2)
  401094:	84 62 00 00 	l.lwz r3,0x0(r2)
  401098:	84 62 00 00 	l.lwz r3,0x0(r2)
  40109c:	84 62 00 00 	l.lwz r3,0x0(r2)
  4010a0:	84 62 00 00 	l.lwz r3,0x0(r2)
  4010a4:	84 62 00 00 	l.lwz r3,0x0(r2)
  4010a8:	84 62 00 00 	l.lwz r3,0x0(r2)
  4010ac:	84 62 00 00 	l.lwz r3,0x0(r2)
  4010b0:	84 62 00 00 	l.lwz r3,0x0(r2)
  4010b4:	84 62 00 00 	l.lwz r3,0x0(r2)
  4010b8:	84 62 00 00 	l.lwz r3,0x0(r2)
  4010bc:	84 62 00 00 	l.lwz r3,0x0(r2)
  4010c0:	84 62 00 00 	l.lwz r3,0x0(r2)
  4010c4:	84 62 00 00 	l.lwz r3,0x0(r2)
  4010c8:	84 62 00 00 	l.lwz r3,0x0(r2)
  4010cc:	84 62 00 00 	l.lwz r3,0x0(r2)
  4010d0:	84 62 00 00 	l.lwz r3,0x0(r2)
  4010d4:	84 62 00 00 	l.lwz r3,0x0(r2)
  4010d8:	84 62 00 00 	l.lwz r3,0x0(r2)
  4010dc:	84 62 00 00 	l.lwz r3,0x0(r2)
  4010e0:	84 62 00 00 	l.lwz r3,0x0(r2)
  4010e4:	84 62 00 00 	l.lwz r3,0x0(r2)
  4010e8:	84 62 00 00 	l.lwz r3,0x0(r2)
  4010ec:	84 62 00 00 	l.lwz r3,0x0(r2)
  4010f0:	84 62 00 00 	l.lwz r3,0x0(r2)
  4010f4:	84 62 00 00 	l.lwz r3,0x0(r2)
  4010f8:	84 62 00 00 	l.lwz r3,0x0(r2)
  4010fc:	84 62 00 00 	l.lwz r3,0x0(r2)
          RARead(&file, sector_buffer, 512);
  401100:	a8 61 00 00 	l.ori r3,r1,0x0
  401104:	48 00 d0 00 	l.jalr r26
  401108:	a8 84 a4 dc 	l.ori r4,r4,0xa4dc
          MEM_UPLOAD_INIT(adr);
  40110c:	9c 60 00 44 	l.addi r3,r0,0x44
  401110:	9c 80 00 1c 	l.addi r4,r0,0x1c
  401114:	d4 18 18 00 	l.sw 0x0(r24),r3
  401118:	d4 0e 20 00 	l.sw 0x0(r14),r4
          i = 0;
  40111c:	9c a0 00 00 	l.addi r5,r0,0x0
    for (y=0; y<LOGO_HEIGHT; y++) {
      for (x=0; x<LOGO_WIDTH/16; x++) {
        if (i == 512) {
          MEM_UPLOAD_FINI();
          RARead(&file, sector_buffer, 512);
          MEM_UPLOAD_INIT(adr);
  401120:	84 6e 00 00 	l.lwz r3,0x0(r14)
  401124:	a4 70 00 ff 	l.andi r3,r16,0xff
  401128:	d4 0e 18 00 	l.sw 0x0(r14),r3
  40112c:	84 6e 00 00 	l.lwz r3,0x0(r14)
  401130:	b8 70 00 88 	l.srai r3,r16,0x8
  401134:	a4 63 00 ff 	l.andi r3,r3,0xff
  401138:	d4 0e 18 00 	l.sw 0x0(r14),r3
  40113c:	84 6e 00 00 	l.lwz r3,0x0(r14)
  401140:	b8 70 00 90 	l.srai r3,r16,0x10
  401144:	a4 63 00 ff 	l.andi r3,r3,0xff
  401148:	d4 0e 18 00 	l.sw 0x0(r14),r3
  40114c:	84 6e 00 00 	l.lwz r3,0x0(r14)
  401150:	b8 70 00 58 	l.srli r3,r16,0x18
  401154:	d4 0e 18 00 	l.sw 0x0(r14),r3
  401158:	84 6e 00 00 	l.lwz r3,0x0(r14)
          i = 0;
        }
        SPI(sector_buffer[i++]);
  40115c:	18 80 00 41 	l.movhi r4,0x41
        SPI(sector_buffer[i++]);
        SPIN(); SPIN(); SPIN(); SPIN();
  401160:	9e d6 ff ff 	l.addi r22,r22,0xffffffff
          MEM_UPLOAD_FINI();
          RARead(&file, sector_buffer, 512);
          MEM_UPLOAD_INIT(adr);
          i = 0;
        }
        SPI(sector_buffer[i++]);
  401164:	a8 84 a4 dc 	l.ori r4,r4,0xa4dc
  if (RAOpen(&file, LOGO_FILE)) {
    RARead(&file, sector_buffer, 512);
    MEM_UPLOAD_INIT(SCREEN_BPL1+LOGO_OFFSET);
    adr = SCREEN_BPL1+LOGO_OFFSET;
    for (y=0; y<LOGO_HEIGHT; y++) {
      for (x=0; x<LOGO_WIDTH/16; x++) {
  401168:	bc 36 00 00 	l.sfnei r22,0x0
          MEM_UPLOAD_FINI();
          RARead(&file, sector_buffer, 512);
          MEM_UPLOAD_INIT(adr);
          i = 0;
        }
        SPI(sector_buffer[i++]);
  40116c:	e0 65 20 00 	l.add r3,r5,r4
  401170:	8c 63 00 00 	l.lbz r3,0x0(r3)
  401174:	d4 0e 18 00 	l.sw 0x0(r14),r3
  401178:	9c 65 00 01 	l.addi r3,r5,0x1
  40117c:	84 8e 00 00 	l.lwz r4,0x0(r14)
        SPI(sector_buffer[i++]);
  401180:	18 80 00 41 	l.movhi r4,0x41
  401184:	9c a5 00 02 	l.addi r5,r5,0x2
  401188:	a8 84 a4 dc 	l.ori r4,r4,0xa4dc
  40118c:	e0 63 20 00 	l.add r3,r3,r4
  401190:	8c 63 00 00 	l.lbz r3,0x0(r3)
  401194:	d4 0e 18 00 	l.sw 0x0(r14),r3
  401198:	84 6e 00 00 	l.lwz r3,0x0(r14)
        SPIN(); SPIN(); SPIN(); SPIN();
  40119c:	84 62 00 00 	l.lwz r3,0x0(r2)
  4011a0:	84 62 00 00 	l.lwz r3,0x0(r2)
  4011a4:	84 62 00 00 	l.lwz r3,0x0(r2)
  4011a8:	84 62 00 00 	l.lwz r3,0x0(r2)
  4011ac:	84 62 00 00 	l.lwz r3,0x0(r2)
  4011b0:	84 62 00 00 	l.lwz r3,0x0(r2)
  4011b4:	84 62 00 00 	l.lwz r3,0x0(r2)
  4011b8:	84 62 00 00 	l.lwz r3,0x0(r2)
  4011bc:	84 62 00 00 	l.lwz r3,0x0(r2)
  4011c0:	84 62 00 00 	l.lwz r3,0x0(r2)
  4011c4:	84 62 00 00 	l.lwz r3,0x0(r2)
  4011c8:	84 62 00 00 	l.lwz r3,0x0(r2)
  4011cc:	84 62 00 00 	l.lwz r3,0x0(r2)
  4011d0:	84 62 00 00 	l.lwz r3,0x0(r2)
  4011d4:	84 62 00 00 	l.lwz r3,0x0(r2)
  4011d8:	84 62 00 00 	l.lwz r3,0x0(r2)
  4011dc:	84 62 00 00 	l.lwz r3,0x0(r2)
  4011e0:	84 62 00 00 	l.lwz r3,0x0(r2)
  4011e4:	84 62 00 00 	l.lwz r3,0x0(r2)
  4011e8:	84 62 00 00 	l.lwz r3,0x0(r2)
  4011ec:	84 62 00 00 	l.lwz r3,0x0(r2)
  4011f0:	84 62 00 00 	l.lwz r3,0x0(r2)
  4011f4:	84 62 00 00 	l.lwz r3,0x0(r2)
  4011f8:	84 62 00 00 	l.lwz r3,0x0(r2)
  4011fc:	84 62 00 00 	l.lwz r3,0x0(r2)
  401200:	84 62 00 00 	l.lwz r3,0x0(r2)
  401204:	84 62 00 00 	l.lwz r3,0x0(r2)
  401208:	84 62 00 00 	l.lwz r3,0x0(r2)
  40120c:	84 62 00 00 	l.lwz r3,0x0(r2)
  401210:	84 62 00 00 	l.lwz r3,0x0(r2)
  401214:	84 62 00 00 	l.lwz r3,0x0(r2)
  401218:	84 62 00 00 	l.lwz r3,0x0(r2)
  40121c:	84 62 00 00 	l.lwz r3,0x0(r2)
  401220:	84 62 00 00 	l.lwz r3,0x0(r2)
  401224:	84 62 00 00 	l.lwz r3,0x0(r2)
  401228:	84 62 00 00 	l.lwz r3,0x0(r2)
  40122c:	84 62 00 00 	l.lwz r3,0x0(r2)
  401230:	84 62 00 00 	l.lwz r3,0x0(r2)
  401234:	84 62 00 00 	l.lwz r3,0x0(r2)
  401238:	84 62 00 00 	l.lwz r3,0x0(r2)
  40123c:	84 62 00 00 	l.lwz r3,0x0(r2)
  401240:	84 62 00 00 	l.lwz r3,0x0(r2)
  401244:	84 62 00 00 	l.lwz r3,0x0(r2)
  401248:	84 62 00 00 	l.lwz r3,0x0(r2)
  40124c:	84 62 00 00 	l.lwz r3,0x0(r2)
  401250:	84 62 00 00 	l.lwz r3,0x0(r2)
  401254:	84 62 00 00 	l.lwz r3,0x0(r2)
  401258:	84 62 00 00 	l.lwz r3,0x0(r2)
  if (RAOpen(&file, LOGO_FILE)) {
    RARead(&file, sector_buffer, 512);
    MEM_UPLOAD_INIT(SCREEN_BPL1+LOGO_OFFSET);
    adr = SCREEN_BPL1+LOGO_OFFSET;
    for (y=0; y<LOGO_HEIGHT; y++) {
      for (x=0; x<LOGO_WIDTH/16; x++) {
  40125c:	13 ff ff 74 	l.bf 40102c <BootUploadLogo+0xd0>
  401260:	9e 10 00 02 	l.addi r16,r16,0x2
        SPIN(); SPIN(); SPIN(); SPIN();
        //for (tmp=0; tmp<0x80000; tmp++);
        //printf("i=%03d  x=%03d  y=%03d  dat[0]=0x%08x  dat[1]=0x%08x\r", i, x, y, sector_buffer[i], sector_buffer[i+1]);
        adr += 2;
      }
      MEM_UPLOAD_FINI();
  401264:	9c c0 00 40 	l.addi r6,r0,0x40
      MEM_UPLOAD_INIT(SCREEN_BPL1+LOGO_OFFSET+(y+1)*(SCREEN_WIDTH/8));
  401268:	9f c0 00 44 	l.addi r30,r0,0x44
        SPIN(); SPIN(); SPIN(); SPIN();
        //for (tmp=0; tmp<0x80000; tmp++);
        //printf("i=%03d  x=%03d  y=%03d  dat[0]=0x%08x  dat[1]=0x%08x\r", i, x, y, sector_buffer[i], sector_buffer[i+1]);
        adr += 2;
      }
      MEM_UPLOAD_FINI();
  40126c:	d4 14 30 00 	l.sw 0x0(r20),r6
      MEM_UPLOAD_INIT(SCREEN_BPL1+LOGO_OFFSET+(y+1)*(SCREEN_WIDTH/8));
  401270:	9f 80 00 1c 	l.addi r28,r0,0x1c
        SPIN(); SPIN(); SPIN(); SPIN();
        //for (tmp=0; tmp<0x80000; tmp++);
        //printf("i=%03d  x=%03d  y=%03d  dat[0]=0x%08x  dat[1]=0x%08x\r", i, x, y, sector_buffer[i], sector_buffer[i+1]);
        adr += 2;
      }
      MEM_UPLOAD_FINI();
  401274:	84 62 00 00 	l.lwz r3,0x0(r2)
  401278:	84 62 00 00 	l.lwz r3,0x0(r2)
  40127c:	84 62 00 00 	l.lwz r3,0x0(r2)
  401280:	84 62 00 00 	l.lwz r3,0x0(r2)
  401284:	84 62 00 00 	l.lwz r3,0x0(r2)
  401288:	84 62 00 00 	l.lwz r3,0x0(r2)
  40128c:	84 62 00 00 	l.lwz r3,0x0(r2)
  401290:	84 62 00 00 	l.lwz r3,0x0(r2)
  401294:	84 62 00 00 	l.lwz r3,0x0(r2)
  401298:	84 62 00 00 	l.lwz r3,0x0(r2)
  40129c:	84 62 00 00 	l.lwz r3,0x0(r2)
  4012a0:	84 62 00 00 	l.lwz r3,0x0(r2)
  4012a4:	84 62 00 00 	l.lwz r3,0x0(r2)
  4012a8:	84 62 00 00 	l.lwz r3,0x0(r2)
  4012ac:	84 62 00 00 	l.lwz r3,0x0(r2)
  4012b0:	84 62 00 00 	l.lwz r3,0x0(r2)
  4012b4:	84 62 00 00 	l.lwz r3,0x0(r2)
  4012b8:	84 62 00 00 	l.lwz r3,0x0(r2)
  4012bc:	84 62 00 00 	l.lwz r3,0x0(r2)
  4012c0:	84 62 00 00 	l.lwz r3,0x0(r2)
  4012c4:	84 62 00 00 	l.lwz r3,0x0(r2)
  4012c8:	84 62 00 00 	l.lwz r3,0x0(r2)
  4012cc:	84 62 00 00 	l.lwz r3,0x0(r2)
  4012d0:	84 62 00 00 	l.lwz r3,0x0(r2)
  4012d4:	84 62 00 00 	l.lwz r3,0x0(r2)
  4012d8:	84 62 00 00 	l.lwz r3,0x0(r2)
  4012dc:	84 62 00 00 	l.lwz r3,0x0(r2)
  4012e0:	84 62 00 00 	l.lwz r3,0x0(r2)
  4012e4:	84 62 00 00 	l.lwz r3,0x0(r2)
  4012e8:	84 62 00 00 	l.lwz r3,0x0(r2)
  4012ec:	84 62 00 00 	l.lwz r3,0x0(r2)
  4012f0:	84 62 00 00 	l.lwz r3,0x0(r2)
  4012f4:	84 62 00 00 	l.lwz r3,0x0(r2)
  4012f8:	84 62 00 00 	l.lwz r3,0x0(r2)
  4012fc:	84 62 00 00 	l.lwz r3,0x0(r2)
  401300:	84 62 00 00 	l.lwz r3,0x0(r2)
  401304:	84 62 00 00 	l.lwz r3,0x0(r2)
  401308:	84 62 00 00 	l.lwz r3,0x0(r2)
  40130c:	84 62 00 00 	l.lwz r3,0x0(r2)
  401310:	84 62 00 00 	l.lwz r3,0x0(r2)
  401314:	84 62 00 00 	l.lwz r3,0x0(r2)
  401318:	84 62 00 00 	l.lwz r3,0x0(r2)
  40131c:	84 62 00 00 	l.lwz r3,0x0(r2)
  401320:	84 62 00 00 	l.lwz r3,0x0(r2)
  401324:	84 62 00 00 	l.lwz r3,0x0(r2)
  401328:	84 62 00 00 	l.lwz r3,0x0(r2)
  40132c:	84 62 00 00 	l.lwz r3,0x0(r2)
  401330:	84 62 00 00 	l.lwz r3,0x0(r2)
      MEM_UPLOAD_INIT(SCREEN_BPL1+LOGO_OFFSET+(y+1)*(SCREEN_WIDTH/8));
  401334:	d4 14 f0 00 	l.sw 0x0(r20),r30
  401338:	d4 0e e0 00 	l.sw 0x0(r14),r28
  40133c:	9c 80 00 08 	l.addi r4,r0,0x8
  401340:	84 6e 00 00 	l.lwz r3,0x0(r14)
  401344:	a4 72 00 ff 	l.andi r3,r18,0xff
        SPIN(); SPIN(); SPIN(); SPIN();
        //for (tmp=0; tmp<0x80000; tmp++);
        //printf("i=%03d  x=%03d  y=%03d  dat[0]=0x%08x  dat[1]=0x%08x\r", i, x, y, sector_buffer[i], sector_buffer[i+1]);
        adr += 2;
      }
      MEM_UPLOAD_FINI();
  401348:	aa 12 00 00 	l.ori r16,r18,0x0
      MEM_UPLOAD_INIT(SCREEN_BPL1+LOGO_OFFSET+(y+1)*(SCREEN_WIDTH/8));
  40134c:	d4 0e 18 00 	l.sw 0x0(r14),r3
  401350:	84 6e 00 00 	l.lwz r3,0x0(r14)
  401354:	b8 72 00 88 	l.srai r3,r18,0x8
  401358:	9e 52 00 50 	l.addi r18,r18,0x50
  40135c:	a4 63 00 ff 	l.andi r3,r3,0xff
  401360:	d4 0e 18 00 	l.sw 0x0(r14),r3
  401364:	84 6e 00 00 	l.lwz r3,0x0(r14)
  401368:	d4 0e 20 00 	l.sw 0x0(r14),r4
  40136c:	84 6e 00 00 	l.lwz r3,0x0(r14)
  401370:	d4 0e b0 00 	l.sw 0x0(r14),r22
  401374:	84 6e 00 00 	l.lwz r3,0x0(r14)

  if (RAOpen(&file, LOGO_FILE)) {
    RARead(&file, sector_buffer, 512);
    MEM_UPLOAD_INIT(SCREEN_BPL1+LOGO_OFFSET);
    adr = SCREEN_BPL1+LOGO_OFFSET;
    for (y=0; y<LOGO_HEIGHT; y++) {
  401378:	18 60 00 08 	l.movhi r3,0x8
  40137c:	a8 63 1e 68 	l.ori r3,r3,0x1e68
  401380:	e4 12 18 00 	l.sfeq r18,r3
  401384:	10 00 00 04 	l.bf 401394 <BootUploadLogo+0x438>
  401388:	15 00 00 00 	l.nop 0x0
}


//// BootUploadLogo() ////
void BootUploadLogo()
{
  40138c:	03 ff ff 28 	l.j 40102c <BootUploadLogo+0xd0>
  401390:	9e c0 00 0d 	l.addi r22,r0,0xd
      }
      MEM_UPLOAD_FINI();
      MEM_UPLOAD_INIT(SCREEN_BPL1+LOGO_OFFSET+(y+1)*(SCREEN_WIDTH/8));
      adr = SCREEN_BPL1+LOGO_OFFSET+(y+1)*(SCREEN_WIDTH/8);
    }
    MEM_UPLOAD_FINI();
  401394:	d4 14 30 00 	l.sw 0x0(r20),r6
    MEM_UPLOAD_INIT(SCREEN_BPL2+LOGO_OFFSET);
  401398:	1a 00 00 08 	l.movhi r16,0x8
      }
      MEM_UPLOAD_FINI();
      MEM_UPLOAD_INIT(SCREEN_BPL1+LOGO_OFFSET+(y+1)*(SCREEN_WIDTH/8));
      adr = SCREEN_BPL1+LOGO_OFFSET+(y+1)*(SCREEN_WIDTH/8);
    }
    MEM_UPLOAD_FINI();
  40139c:	84 62 00 00 	l.lwz r3,0x0(r2)
  4013a0:	84 62 00 00 	l.lwz r3,0x0(r2)
  4013a4:	84 62 00 00 	l.lwz r3,0x0(r2)
  4013a8:	84 62 00 00 	l.lwz r3,0x0(r2)
  4013ac:	84 62 00 00 	l.lwz r3,0x0(r2)
  4013b0:	84 62 00 00 	l.lwz r3,0x0(r2)
  4013b4:	84 62 00 00 	l.lwz r3,0x0(r2)
  4013b8:	84 62 00 00 	l.lwz r3,0x0(r2)
  4013bc:	84 62 00 00 	l.lwz r3,0x0(r2)
  4013c0:	84 62 00 00 	l.lwz r3,0x0(r2)
  4013c4:	84 62 00 00 	l.lwz r3,0x0(r2)
  4013c8:	84 62 00 00 	l.lwz r3,0x0(r2)
  4013cc:	84 62 00 00 	l.lwz r3,0x0(r2)
  4013d0:	84 62 00 00 	l.lwz r3,0x0(r2)
  4013d4:	84 62 00 00 	l.lwz r3,0x0(r2)
  4013d8:	84 62 00 00 	l.lwz r3,0x0(r2)
  4013dc:	84 62 00 00 	l.lwz r3,0x0(r2)
  4013e0:	84 62 00 00 	l.lwz r3,0x0(r2)
  4013e4:	84 62 00 00 	l.lwz r3,0x0(r2)
  4013e8:	84 62 00 00 	l.lwz r3,0x0(r2)
  4013ec:	84 62 00 00 	l.lwz r3,0x0(r2)
  4013f0:	84 62 00 00 	l.lwz r3,0x0(r2)
  4013f4:	84 62 00 00 	l.lwz r3,0x0(r2)
  4013f8:	84 62 00 00 	l.lwz r3,0x0(r2)
  4013fc:	84 62 00 00 	l.lwz r3,0x0(r2)
  401400:	84 62 00 00 	l.lwz r3,0x0(r2)
  401404:	84 62 00 00 	l.lwz r3,0x0(r2)
  401408:	84 62 00 00 	l.lwz r3,0x0(r2)
  40140c:	84 62 00 00 	l.lwz r3,0x0(r2)
  401410:	84 62 00 00 	l.lwz r3,0x0(r2)
  401414:	84 62 00 00 	l.lwz r3,0x0(r2)
  401418:	84 62 00 00 	l.lwz r3,0x0(r2)
  40141c:	84 62 00 00 	l.lwz r3,0x0(r2)
  401420:	84 62 00 00 	l.lwz r3,0x0(r2)
  401424:	84 62 00 00 	l.lwz r3,0x0(r2)
  401428:	84 62 00 00 	l.lwz r3,0x0(r2)
  40142c:	84 62 00 00 	l.lwz r3,0x0(r2)
  401430:	84 62 00 00 	l.lwz r3,0x0(r2)
  401434:	84 62 00 00 	l.lwz r3,0x0(r2)
  401438:	84 62 00 00 	l.lwz r3,0x0(r2)
  40143c:	84 62 00 00 	l.lwz r3,0x0(r2)
  401440:	84 62 00 00 	l.lwz r3,0x0(r2)
  401444:	84 62 00 00 	l.lwz r3,0x0(r2)
  401448:	84 62 00 00 	l.lwz r3,0x0(r2)
  40144c:	84 62 00 00 	l.lwz r3,0x0(r2)
  401450:	84 62 00 00 	l.lwz r3,0x0(r2)
  401454:	84 62 00 00 	l.lwz r3,0x0(r2)
  401458:	84 62 00 00 	l.lwz r3,0x0(r2)
    MEM_UPLOAD_INIT(SCREEN_BPL2+LOGO_OFFSET);
  40145c:	d4 14 f0 00 	l.sw 0x0(r20),r30
  401460:	d4 0e e0 00 	l.sw 0x0(r14),r28
  401464:	aa 50 64 68 	l.ori r18,r16,0x6468
  401468:	84 6e 00 00 	l.lwz r3,0x0(r14)
  40146c:	9c 60 00 18 	l.addi r3,r0,0x18
    adr = SCREEN_BPL2+LOGO_OFFSET;
  401470:	aa 10 64 18 	l.ori r16,r16,0x6418
      MEM_UPLOAD_FINI();
      MEM_UPLOAD_INIT(SCREEN_BPL1+LOGO_OFFSET+(y+1)*(SCREEN_WIDTH/8));
      adr = SCREEN_BPL1+LOGO_OFFSET+(y+1)*(SCREEN_WIDTH/8);
    }
    MEM_UPLOAD_FINI();
    MEM_UPLOAD_INIT(SCREEN_BPL2+LOGO_OFFSET);
  401474:	d4 0e 18 00 	l.sw 0x0(r14),r3
        SPI(sector_buffer[i++]);
        SPI(sector_buffer[i++]);
        SPIN(); SPIN(); SPIN(); SPIN();
        adr += 2;
      }
      MEM_UPLOAD_FINI();
  401478:	ab 14 00 00 	l.ori r24,r20,0x0
      MEM_UPLOAD_FINI();
      MEM_UPLOAD_INIT(SCREEN_BPL1+LOGO_OFFSET+(y+1)*(SCREEN_WIDTH/8));
      adr = SCREEN_BPL1+LOGO_OFFSET+(y+1)*(SCREEN_WIDTH/8);
    }
    MEM_UPLOAD_FINI();
    MEM_UPLOAD_INIT(SCREEN_BPL2+LOGO_OFFSET);
  40147c:	84 6e 00 00 	l.lwz r3,0x0(r14)
  401480:	9c 60 00 64 	l.addi r3,r0,0x64
  401484:	d4 0e 18 00 	l.sw 0x0(r14),r3
  401488:	84 6e 00 00 	l.lwz r3,0x0(r14)
  40148c:	d4 0e 20 00 	l.sw 0x0(r14),r4
  401490:	84 6e 00 00 	l.lwz r3,0x0(r14)
  401494:	d4 0e b0 00 	l.sw 0x0(r14),r22
  401498:	84 6e 00 00 	l.lwz r3,0x0(r14)
  40149c:	9e c0 00 0d 	l.addi r22,r0,0xd
    adr = SCREEN_BPL2+LOGO_OFFSET;
    for (y=0; y<LOGO_HEIGHT; y++) {
      for (x=0; x<LOGO_WIDTH/16; x++) {
        if (i == 512) {
  4014a0:	bc 25 02 00 	l.sfnei r5,0x200
  4014a4:	10 00 00 49 	l.bf 4015c8 <BootUploadLogo+0x66c>
  4014a8:	9c 80 00 40 	l.addi r4,r0,0x40
          MEM_UPLOAD_FINI();
  4014ac:	d4 14 20 00 	l.sw 0x0(r20),r4
          RARead(&file, sector_buffer, 512);
  4014b0:	18 80 00 41 	l.movhi r4,0x41
    MEM_UPLOAD_INIT(SCREEN_BPL2+LOGO_OFFSET);
    adr = SCREEN_BPL2+LOGO_OFFSET;
    for (y=0; y<LOGO_HEIGHT; y++) {
      for (x=0; x<LOGO_WIDTH/16; x++) {
        if (i == 512) {
          MEM_UPLOAD_FINI();
  4014b4:	84 62 00 00 	l.lwz r3,0x0(r2)
  4014b8:	84 62 00 00 	l.lwz r3,0x0(r2)
  4014bc:	84 62 00 00 	l.lwz r3,0x0(r2)
  4014c0:	84 62 00 00 	l.lwz r3,0x0(r2)
  4014c4:	84 62 00 00 	l.lwz r3,0x0(r2)
  4014c8:	84 62 00 00 	l.lwz r3,0x0(r2)
  4014cc:	84 62 00 00 	l.lwz r3,0x0(r2)
  4014d0:	84 62 00 00 	l.lwz r3,0x0(r2)
  4014d4:	84 62 00 00 	l.lwz r3,0x0(r2)
  4014d8:	84 62 00 00 	l.lwz r3,0x0(r2)
  4014dc:	84 62 00 00 	l.lwz r3,0x0(r2)
  4014e0:	84 62 00 00 	l.lwz r3,0x0(r2)
  4014e4:	84 62 00 00 	l.lwz r3,0x0(r2)
  4014e8:	84 62 00 00 	l.lwz r3,0x0(r2)
  4014ec:	84 62 00 00 	l.lwz r3,0x0(r2)
  4014f0:	84 62 00 00 	l.lwz r3,0x0(r2)
  4014f4:	84 62 00 00 	l.lwz r3,0x0(r2)
  4014f8:	84 62 00 00 	l.lwz r3,0x0(r2)
  4014fc:	84 62 00 00 	l.lwz r3,0x0(r2)
  401500:	84 62 00 00 	l.lwz r3,0x0(r2)
  401504:	84 62 00 00 	l.lwz r3,0x0(r2)
  401508:	84 62 00 00 	l.lwz r3,0x0(r2)
  40150c:	84 62 00 00 	l.lwz r3,0x0(r2)
  401510:	84 62 00 00 	l.lwz r3,0x0(r2)
  401514:	84 62 00 00 	l.lwz r3,0x0(r2)
  401518:	84 62 00 00 	l.lwz r3,0x0(r2)
  40151c:	84 62 00 00 	l.lwz r3,0x0(r2)
  401520:	84 62 00 00 	l.lwz r3,0x0(r2)
  401524:	84 62 00 00 	l.lwz r3,0x0(r2)
  401528:	84 62 00 00 	l.lwz r3,0x0(r2)
  40152c:	84 62 00 00 	l.lwz r3,0x0(r2)
  401530:	84 62 00 00 	l.lwz r3,0x0(r2)
  401534:	84 62 00 00 	l.lwz r3,0x0(r2)
  401538:	84 62 00 00 	l.lwz r3,0x0(r2)
  40153c:	84 62 00 00 	l.lwz r3,0x0(r2)
  401540:	84 62 00 00 	l.lwz r3,0x0(r2)
  401544:	84 62 00 00 	l.lwz r3,0x0(r2)
  401548:	84 62 00 00 	l.lwz r3,0x0(r2)
  40154c:	84 62 00 00 	l.lwz r3,0x0(r2)
  401550:	84 62 00 00 	l.lwz r3,0x0(r2)
  401554:	84 62 00 00 	l.lwz r3,0x0(r2)
  401558:	84 62 00 00 	l.lwz r3,0x0(r2)
  40155c:	84 62 00 00 	l.lwz r3,0x0(r2)
  401560:	84 62 00 00 	l.lwz r3,0x0(r2)
  401564:	84 62 00 00 	l.lwz r3,0x0(r2)
  401568:	84 62 00 00 	l.lwz r3,0x0(r2)
  40156c:	84 62 00 00 	l.lwz r3,0x0(r2)
  401570:	84 62 00 00 	l.lwz r3,0x0(r2)
          RARead(&file, sector_buffer, 512);
  401574:	a8 61 00 00 	l.ori r3,r1,0x0
  401578:	48 00 d0 00 	l.jalr r26
  40157c:	a8 84 a4 dc 	l.ori r4,r4,0xa4dc
          MEM_UPLOAD_INIT(adr);
  401580:	d4 14 f0 00 	l.sw 0x0(r20),r30
  401584:	d4 0e e0 00 	l.sw 0x0(r14),r28
          i = 0;
  401588:	9c a0 00 00 	l.addi r5,r0,0x0
    for (y=0; y<LOGO_HEIGHT; y++) {
      for (x=0; x<LOGO_WIDTH/16; x++) {
        if (i == 512) {
          MEM_UPLOAD_FINI();
          RARead(&file, sector_buffer, 512);
          MEM_UPLOAD_INIT(adr);
  40158c:	84 6e 00 00 	l.lwz r3,0x0(r14)
  401590:	a4 70 00 ff 	l.andi r3,r16,0xff
  401594:	d4 0e 18 00 	l.sw 0x0(r14),r3
  401598:	84 6e 00 00 	l.lwz r3,0x0(r14)
  40159c:	b8 70 00 88 	l.srai r3,r16,0x8
  4015a0:	a4 63 00 ff 	l.andi r3,r3,0xff
  4015a4:	d4 0e 18 00 	l.sw 0x0(r14),r3
  4015a8:	84 6e 00 00 	l.lwz r3,0x0(r14)
  4015ac:	b8 70 00 90 	l.srai r3,r16,0x10
  4015b0:	a4 63 00 ff 	l.andi r3,r3,0xff
  4015b4:	d4 0e 18 00 	l.sw 0x0(r14),r3
  4015b8:	84 6e 00 00 	l.lwz r3,0x0(r14)
  4015bc:	b8 70 00 58 	l.srli r3,r16,0x18
  4015c0:	d4 0e 18 00 	l.sw 0x0(r14),r3
  4015c4:	84 6e 00 00 	l.lwz r3,0x0(r14)
          i = 0;
        }
        SPI(sector_buffer[i++]);
  4015c8:	18 80 00 41 	l.movhi r4,0x41
        SPI(sector_buffer[i++]);
        SPIN(); SPIN(); SPIN(); SPIN();
  4015cc:	9e d6 ff ff 	l.addi r22,r22,0xffffffff
          MEM_UPLOAD_FINI();
          RARead(&file, sector_buffer, 512);
          MEM_UPLOAD_INIT(adr);
          i = 0;
        }
        SPI(sector_buffer[i++]);
  4015d0:	a8 84 a4 dc 	l.ori r4,r4,0xa4dc
    }
    MEM_UPLOAD_FINI();
    MEM_UPLOAD_INIT(SCREEN_BPL2+LOGO_OFFSET);
    adr = SCREEN_BPL2+LOGO_OFFSET;
    for (y=0; y<LOGO_HEIGHT; y++) {
      for (x=0; x<LOGO_WIDTH/16; x++) {
  4015d4:	bc 36 00 00 	l.sfnei r22,0x0
          MEM_UPLOAD_FINI();
          RARead(&file, sector_buffer, 512);
          MEM_UPLOAD_INIT(adr);
          i = 0;
        }
        SPI(sector_buffer[i++]);
  4015d8:	e0 65 20 00 	l.add r3,r5,r4
  4015dc:	8c 63 00 00 	l.lbz r3,0x0(r3)
  4015e0:	d4 0e 18 00 	l.sw 0x0(r14),r3
  4015e4:	9c 65 00 01 	l.addi r3,r5,0x1
  4015e8:	84 8e 00 00 	l.lwz r4,0x0(r14)
        SPI(sector_buffer[i++]);
  4015ec:	18 80 00 41 	l.movhi r4,0x41
  4015f0:	9c a5 00 02 	l.addi r5,r5,0x2
  4015f4:	a8 84 a4 dc 	l.ori r4,r4,0xa4dc
  4015f8:	e0 63 20 00 	l.add r3,r3,r4
  4015fc:	8c 63 00 00 	l.lbz r3,0x0(r3)
  401600:	d4 0e 18 00 	l.sw 0x0(r14),r3
  401604:	84 6e 00 00 	l.lwz r3,0x0(r14)
        SPIN(); SPIN(); SPIN(); SPIN();
  401608:	84 62 00 00 	l.lwz r3,0x0(r2)
  40160c:	84 62 00 00 	l.lwz r3,0x0(r2)
  401610:	84 62 00 00 	l.lwz r3,0x0(r2)
  401614:	84 62 00 00 	l.lwz r3,0x0(r2)
  401618:	84 62 00 00 	l.lwz r3,0x0(r2)
  40161c:	84 62 00 00 	l.lwz r3,0x0(r2)
  401620:	84 62 00 00 	l.lwz r3,0x0(r2)
  401624:	84 62 00 00 	l.lwz r3,0x0(r2)
  401628:	84 62 00 00 	l.lwz r3,0x0(r2)
  40162c:	84 62 00 00 	l.lwz r3,0x0(r2)
  401630:	84 62 00 00 	l.lwz r3,0x0(r2)
  401634:	84 62 00 00 	l.lwz r3,0x0(r2)
  401638:	84 62 00 00 	l.lwz r3,0x0(r2)
  40163c:	84 62 00 00 	l.lwz r3,0x0(r2)
  401640:	84 62 00 00 	l.lwz r3,0x0(r2)
  401644:	84 62 00 00 	l.lwz r3,0x0(r2)
  401648:	84 62 00 00 	l.lwz r3,0x0(r2)
  40164c:	84 62 00 00 	l.lwz r3,0x0(r2)
  401650:	84 62 00 00 	l.lwz r3,0x0(r2)
  401654:	84 62 00 00 	l.lwz r3,0x0(r2)
  401658:	84 62 00 00 	l.lwz r3,0x0(r2)
  40165c:	84 62 00 00 	l.lwz r3,0x0(r2)
  401660:	84 62 00 00 	l.lwz r3,0x0(r2)
  401664:	84 62 00 00 	l.lwz r3,0x0(r2)
  401668:	84 62 00 00 	l.lwz r3,0x0(r2)
  40166c:	84 62 00 00 	l.lwz r3,0x0(r2)
  401670:	84 62 00 00 	l.lwz r3,0x0(r2)
  401674:	84 62 00 00 	l.lwz r3,0x0(r2)
  401678:	84 62 00 00 	l.lwz r3,0x0(r2)
  40167c:	84 62 00 00 	l.lwz r3,0x0(r2)
  401680:	84 62 00 00 	l.lwz r3,0x0(r2)
  401684:	84 62 00 00 	l.lwz r3,0x0(r2)
  401688:	84 62 00 00 	l.lwz r3,0x0(r2)
  40168c:	84 62 00 00 	l.lwz r3,0x0(r2)
  401690:	84 62 00 00 	l.lwz r3,0x0(r2)
  401694:	84 62 00 00 	l.lwz r3,0x0(r2)
  401698:	84 62 00 00 	l.lwz r3,0x0(r2)
  40169c:	84 62 00 00 	l.lwz r3,0x0(r2)
  4016a0:	84 62 00 00 	l.lwz r3,0x0(r2)
  4016a4:	84 62 00 00 	l.lwz r3,0x0(r2)
  4016a8:	84 62 00 00 	l.lwz r3,0x0(r2)
  4016ac:	84 62 00 00 	l.lwz r3,0x0(r2)
  4016b0:	84 62 00 00 	l.lwz r3,0x0(r2)
  4016b4:	84 62 00 00 	l.lwz r3,0x0(r2)
  4016b8:	84 62 00 00 	l.lwz r3,0x0(r2)
  4016bc:	84 62 00 00 	l.lwz r3,0x0(r2)
  4016c0:	84 62 00 00 	l.lwz r3,0x0(r2)
  4016c4:	84 62 00 00 	l.lwz r3,0x0(r2)
    }
    MEM_UPLOAD_FINI();
    MEM_UPLOAD_INIT(SCREEN_BPL2+LOGO_OFFSET);
    adr = SCREEN_BPL2+LOGO_OFFSET;
    for (y=0; y<LOGO_HEIGHT; y++) {
      for (x=0; x<LOGO_WIDTH/16; x++) {
  4016c8:	13 ff ff 76 	l.bf 4014a0 <BootUploadLogo+0x544>
  4016cc:	9e 10 00 02 	l.addi r16,r16,0x2
        SPI(sector_buffer[i++]);
        SPI(sector_buffer[i++]);
        SPIN(); SPIN(); SPIN(); SPIN();
        adr += 2;
      }
      MEM_UPLOAD_FINI();
  4016d0:	9c 60 00 40 	l.addi r3,r0,0x40
      MEM_UPLOAD_INIT(SCREEN_BPL2+LOGO_OFFSET+(y+1)*(SCREEN_WIDTH/8));
  4016d4:	9c 80 00 08 	l.addi r4,r0,0x8
        SPI(sector_buffer[i++]);
        SPI(sector_buffer[i++]);
        SPIN(); SPIN(); SPIN(); SPIN();
        adr += 2;
      }
      MEM_UPLOAD_FINI();
  4016d8:	d4 18 18 00 	l.sw 0x0(r24),r3
  4016dc:	aa 12 00 00 	l.ori r16,r18,0x0
  4016e0:	84 62 00 00 	l.lwz r3,0x0(r2)
  4016e4:	84 62 00 00 	l.lwz r3,0x0(r2)
  4016e8:	84 62 00 00 	l.lwz r3,0x0(r2)
  4016ec:	84 62 00 00 	l.lwz r3,0x0(r2)
  4016f0:	84 62 00 00 	l.lwz r3,0x0(r2)
  4016f4:	84 62 00 00 	l.lwz r3,0x0(r2)
  4016f8:	84 62 00 00 	l.lwz r3,0x0(r2)
  4016fc:	84 62 00 00 	l.lwz r3,0x0(r2)
  401700:	84 62 00 00 	l.lwz r3,0x0(r2)
  401704:	84 62 00 00 	l.lwz r3,0x0(r2)
  401708:	84 62 00 00 	l.lwz r3,0x0(r2)
  40170c:	84 62 00 00 	l.lwz r3,0x0(r2)
  401710:	84 62 00 00 	l.lwz r3,0x0(r2)
  401714:	84 62 00 00 	l.lwz r3,0x0(r2)
  401718:	84 62 00 00 	l.lwz r3,0x0(r2)
  40171c:	84 62 00 00 	l.lwz r3,0x0(r2)
  401720:	84 62 00 00 	l.lwz r3,0x0(r2)
  401724:	84 62 00 00 	l.lwz r3,0x0(r2)
  401728:	84 62 00 00 	l.lwz r3,0x0(r2)
  40172c:	84 62 00 00 	l.lwz r3,0x0(r2)
  401730:	84 62 00 00 	l.lwz r3,0x0(r2)
  401734:	84 62 00 00 	l.lwz r3,0x0(r2)
  401738:	84 62 00 00 	l.lwz r3,0x0(r2)
  40173c:	84 62 00 00 	l.lwz r3,0x0(r2)
  401740:	84 62 00 00 	l.lwz r3,0x0(r2)
  401744:	84 62 00 00 	l.lwz r3,0x0(r2)
  401748:	84 62 00 00 	l.lwz r3,0x0(r2)
  40174c:	84 62 00 00 	l.lwz r3,0x0(r2)
  401750:	84 62 00 00 	l.lwz r3,0x0(r2)
  401754:	84 62 00 00 	l.lwz r3,0x0(r2)
  401758:	84 62 00 00 	l.lwz r3,0x0(r2)
  40175c:	84 62 00 00 	l.lwz r3,0x0(r2)
  401760:	84 62 00 00 	l.lwz r3,0x0(r2)
  401764:	84 62 00 00 	l.lwz r3,0x0(r2)
  401768:	84 62 00 00 	l.lwz r3,0x0(r2)
  40176c:	84 62 00 00 	l.lwz r3,0x0(r2)
  401770:	84 62 00 00 	l.lwz r3,0x0(r2)
  401774:	84 62 00 00 	l.lwz r3,0x0(r2)
  401778:	84 62 00 00 	l.lwz r3,0x0(r2)
  40177c:	84 62 00 00 	l.lwz r3,0x0(r2)
  401780:	84 62 00 00 	l.lwz r3,0x0(r2)
  401784:	84 62 00 00 	l.lwz r3,0x0(r2)
  401788:	84 62 00 00 	l.lwz r3,0x0(r2)
  40178c:	84 62 00 00 	l.lwz r3,0x0(r2)
  401790:	84 62 00 00 	l.lwz r3,0x0(r2)
  401794:	84 62 00 00 	l.lwz r3,0x0(r2)
  401798:	84 62 00 00 	l.lwz r3,0x0(r2)
  40179c:	84 62 00 00 	l.lwz r3,0x0(r2)
      MEM_UPLOAD_INIT(SCREEN_BPL2+LOGO_OFFSET+(y+1)*(SCREEN_WIDTH/8));
  4017a0:	d4 18 f0 00 	l.sw 0x0(r24),r30
  4017a4:	d4 0e e0 00 	l.sw 0x0(r14),r28
  4017a8:	84 6e 00 00 	l.lwz r3,0x0(r14)
  4017ac:	a4 72 00 ff 	l.andi r3,r18,0xff
  4017b0:	d4 0e 18 00 	l.sw 0x0(r14),r3
  4017b4:	84 6e 00 00 	l.lwz r3,0x0(r14)
  4017b8:	b8 72 00 88 	l.srai r3,r18,0x8
  4017bc:	9e 52 00 50 	l.addi r18,r18,0x50
  4017c0:	a4 63 00 ff 	l.andi r3,r3,0xff
  4017c4:	d4 0e 18 00 	l.sw 0x0(r14),r3
  4017c8:	84 6e 00 00 	l.lwz r3,0x0(r14)
  4017cc:	d4 0e 20 00 	l.sw 0x0(r14),r4
  4017d0:	84 6e 00 00 	l.lwz r3,0x0(r14)
  4017d4:	d4 0e b0 00 	l.sw 0x0(r14),r22
  4017d8:	84 6e 00 00 	l.lwz r3,0x0(r14)
      adr = SCREEN_BPL1+LOGO_OFFSET+(y+1)*(SCREEN_WIDTH/8);
    }
    MEM_UPLOAD_FINI();
    MEM_UPLOAD_INIT(SCREEN_BPL2+LOGO_OFFSET);
    adr = SCREEN_BPL2+LOGO_OFFSET;
    for (y=0; y<LOGO_HEIGHT; y++) {
  4017dc:	18 60 00 08 	l.movhi r3,0x8
  4017e0:	a8 63 6e 68 	l.ori r3,r3,0x6e68
  4017e4:	e4 12 18 00 	l.sfeq r18,r3
  4017e8:	0f ff ff 2e 	l.bnf 4014a0 <BootUploadLogo+0x544>
  4017ec:	9e c0 00 0d 	l.addi r22,r0,0xd
      }
      MEM_UPLOAD_FINI();
      MEM_UPLOAD_INIT(SCREEN_BPL2+LOGO_OFFSET+(y+1)*(SCREEN_WIDTH/8));
      adr = SCREEN_BPL2+LOGO_OFFSET+(y+1)*(SCREEN_WIDTH/8);
    }
    MEM_UPLOAD_FINI();
  4017f0:	9c 60 00 40 	l.addi r3,r0,0x40
  4017f4:	d4 18 18 00 	l.sw 0x0(r24),r3
  4017f8:	84 62 00 00 	l.lwz r3,0x0(r2)
  4017fc:	84 62 00 00 	l.lwz r3,0x0(r2)
  401800:	84 62 00 00 	l.lwz r3,0x0(r2)
  401804:	84 62 00 00 	l.lwz r3,0x0(r2)
  401808:	84 62 00 00 	l.lwz r3,0x0(r2)
  40180c:	84 62 00 00 	l.lwz r3,0x0(r2)
  401810:	84 62 00 00 	l.lwz r3,0x0(r2)
  401814:	84 62 00 00 	l.lwz r3,0x0(r2)
  401818:	84 62 00 00 	l.lwz r3,0x0(r2)
  40181c:	84 62 00 00 	l.lwz r3,0x0(r2)
  401820:	84 62 00 00 	l.lwz r3,0x0(r2)
  401824:	84 62 00 00 	l.lwz r3,0x0(r2)
  401828:	84 62 00 00 	l.lwz r3,0x0(r2)
  40182c:	84 62 00 00 	l.lwz r3,0x0(r2)
  401830:	84 62 00 00 	l.lwz r3,0x0(r2)
  401834:	84 62 00 00 	l.lwz r3,0x0(r2)
  401838:	84 62 00 00 	l.lwz r3,0x0(r2)
  40183c:	84 62 00 00 	l.lwz r3,0x0(r2)
  401840:	84 62 00 00 	l.lwz r3,0x0(r2)
  401844:	84 62 00 00 	l.lwz r3,0x0(r2)
  401848:	84 62 00 00 	l.lwz r3,0x0(r2)
  40184c:	84 62 00 00 	l.lwz r3,0x0(r2)
  401850:	84 62 00 00 	l.lwz r3,0x0(r2)
  401854:	84 62 00 00 	l.lwz r3,0x0(r2)
  401858:	84 62 00 00 	l.lwz r3,0x0(r2)
  40185c:	84 62 00 00 	l.lwz r3,0x0(r2)
  401860:	84 62 00 00 	l.lwz r3,0x0(r2)
  401864:	84 62 00 00 	l.lwz r3,0x0(r2)
  401868:	84 62 00 00 	l.lwz r3,0x0(r2)
  40186c:	84 62 00 00 	l.lwz r3,0x0(r2)
  401870:	84 62 00 00 	l.lwz r3,0x0(r2)
  401874:	84 62 00 00 	l.lwz r3,0x0(r2)
  401878:	84 62 00 00 	l.lwz r3,0x0(r2)
  40187c:	84 62 00 00 	l.lwz r3,0x0(r2)
  401880:	84 62 00 00 	l.lwz r3,0x0(r2)
  401884:	84 62 00 00 	l.lwz r3,0x0(r2)
  401888:	84 62 00 00 	l.lwz r3,0x0(r2)
  40188c:	84 62 00 00 	l.lwz r3,0x0(r2)
  401890:	84 62 00 00 	l.lwz r3,0x0(r2)
  401894:	84 62 00 00 	l.lwz r3,0x0(r2)
  401898:	84 62 00 00 	l.lwz r3,0x0(r2)
  40189c:	84 62 00 00 	l.lwz r3,0x0(r2)
  4018a0:	84 62 00 00 	l.lwz r3,0x0(r2)
  4018a4:	84 62 00 00 	l.lwz r3,0x0(r2)
  4018a8:	84 62 00 00 	l.lwz r3,0x0(r2)
  4018ac:	84 62 00 00 	l.lwz r3,0x0(r2)
  4018b0:	84 62 00 00 	l.lwz r3,0x0(r2)
  4018b4:	84 42 00 00 	l.lwz r2,0x0(r2)
  }
}
  4018b8:	9c 21 03 60 	l.addi r1,r1,0x360
  4018bc:	85 21 ff fc 	l.lwz r9,0xfffffffc(r1)
  4018c0:	84 41 ff d4 	l.lwz r2,0xffffffd4(r1)
  4018c4:	85 c1 ff d8 	l.lwz r14,0xffffffd8(r1)
  4018c8:	86 01 ff dc 	l.lwz r16,0xffffffdc(r1)
  4018cc:	86 41 ff e0 	l.lwz r18,0xffffffe0(r1)
  4018d0:	86 81 ff e4 	l.lwz r20,0xffffffe4(r1)
  4018d4:	86 c1 ff e8 	l.lwz r22,0xffffffe8(r1)
  4018d8:	87 01 ff ec 	l.lwz r24,0xffffffec(r1)
  4018dc:	87 41 ff f0 	l.lwz r26,0xfffffff0(r1)
  4018e0:	87 81 ff f4 	l.lwz r28,0xfffffff4(r1)
  4018e4:	44 00 48 00 	l.jr r9
  4018e8:	87 c1 ff f8 	l.lwz r30,0xfffffff8(r1)

004018ec <BootUploadBall>:


//// BootUploadBall() ////
void BootUploadBall()
{
  4018ec:	d7 e1 4f fc 	l.sw 0xfffffffc(r1),r9
  4018f0:	d7 e1 17 d8 	l.sw 0xffffffd8(r1),r2
  4018f4:	d7 e1 77 dc 	l.sw 0xffffffdc(r1),r14
  4018f8:	d7 e1 87 e0 	l.sw 0xffffffe0(r1),r16
  4018fc:	d7 e1 97 e4 	l.sw 0xffffffe4(r1),r18
  401900:	d7 e1 a7 e8 	l.sw 0xffffffe8(r1),r20
  401904:	d7 e1 b7 ec 	l.sw 0xffffffec(r1),r22
  401908:	d7 e1 c7 f0 	l.sw 0xfffffff0(r1),r24
  40190c:	d7 e1 d7 f4 	l.sw 0xfffffff4(r1),r26
  401910:	d7 e1 e7 f8 	l.sw 0xfffffff8(r1),r28
  RAFile file;
  int x;
  int i=0;
  int adr;

  if (RAOpen(&file, BALL_FILE)) {
  401914:	18 80 00 41 	l.movhi r4,0x41
}


//// BootUploadBall() ////
void BootUploadBall()
{
  401918:	9c 21 fc a4 	l.addi r1,r1,0xfffffca4
  RAFile file;
  int x;
  int i=0;
  int adr;

  if (RAOpen(&file, BALL_FILE)) {
  40191c:	a8 84 77 5b 	l.ori r4,r4,0x775b
  401920:	04 00 1f 21 	l.jal 4095a4 <RAOpen>
  401924:	a8 61 00 00 	l.ori r3,r1,0x0
  401928:	bc 0b 00 00 	l.sfeqi r11,0x0
  40192c:	10 00 00 e6 	l.bf 401cc4 <BootUploadBall+0x3d8>
  401930:	1a c0 00 40 	l.movhi r22,0x40
    RARead(&file, sector_buffer, 512);
  401934:	18 80 00 41 	l.movhi r4,0x41
  401938:	a8 61 00 00 	l.ori r3,r1,0x0
  40193c:	a8 84 a4 dc 	l.ori r4,r4,0xa4dc
  401940:	9c a0 02 00 	l.addi r5,r0,0x200
  401944:	aa d6 56 a4 	l.ori r22,r22,0x56a4
  401948:	48 00 b0 00 	l.jalr r22
  40194c:	18 40 00 80 	l.movhi r2,0x80
    MEM_UPLOAD_INIT(BALL_ADDRESS);
  401950:	aa 82 00 20 	l.ori r20,r2,0x20
  401954:	9c c0 00 44 	l.addi r6,r0,0x44
  401958:	a9 c2 00 24 	l.ori r14,r2,0x24
  40195c:	9c 80 00 1c 	l.addi r4,r0,0x1c
  401960:	d4 14 30 00 	l.sw 0x0(r20),r6
  401964:	d4 0e 20 00 	l.sw 0x0(r14),r4
    adr = BALL_ADDRESS;
  401968:	1a 00 00 08 	l.movhi r16,0x8
  int i=0;
  int adr;

  if (RAOpen(&file, BALL_FILE)) {
    RARead(&file, sector_buffer, 512);
    MEM_UPLOAD_INIT(BALL_ADDRESS);
  40196c:	84 6e 00 00 	l.lwz r3,0x0(r14)
  401970:	9c 60 00 00 	l.addi r3,r0,0x0
    adr = BALL_ADDRESS;
  401974:	aa 10 a0 00 	l.ori r16,r16,0xa000
  int i=0;
  int adr;

  if (RAOpen(&file, BALL_FILE)) {
    RARead(&file, sector_buffer, 512);
    MEM_UPLOAD_INIT(BALL_ADDRESS);
  401978:	d4 0e 18 00 	l.sw 0x0(r14),r3
//// BootUploadBall() ////
void BootUploadBall()
{
  RAFile file;
  int x;
  int i=0;
  40197c:	9c a0 00 00 	l.addi r5,r0,0x0
  int adr;

  if (RAOpen(&file, BALL_FILE)) {
    RARead(&file, sector_buffer, 512);
    MEM_UPLOAD_INIT(BALL_ADDRESS);
  401980:	84 6e 00 00 	l.lwz r3,0x0(r14)
  401984:	9c 60 00 a0 	l.addi r3,r0,0xa0
        MEM_UPLOAD_INIT(adr);
        i = 0;
      }
      SPI(sector_buffer[i++]);
      SPI(sector_buffer[i++]);
      SPIN(); SPIN(); SPIN(); SPIN();
  401988:	e0 42 20 04 	l.or r2,r2,r4
  int i=0;
  int adr;

  if (RAOpen(&file, BALL_FILE)) {
    RARead(&file, sector_buffer, 512);
    MEM_UPLOAD_INIT(BALL_ADDRESS);
  40198c:	d4 0e 18 00 	l.sw 0x0(r14),r3
    adr = BALL_ADDRESS;
    for (x=0; x<BALL_SIZE/2; x++) {
      if (i == 512) {
        MEM_UPLOAD_FINI();
  401990:	9f 80 00 40 	l.addi r28,r0,0x40
  int i=0;
  int adr;

  if (RAOpen(&file, BALL_FILE)) {
    RARead(&file, sector_buffer, 512);
    MEM_UPLOAD_INIT(BALL_ADDRESS);
  401994:	84 6e 00 00 	l.lwz r3,0x0(r14)
  401998:	9c 60 00 08 	l.addi r3,r0,0x8
    adr = BALL_ADDRESS;
    for (x=0; x<BALL_SIZE/2; x++) {
      if (i == 512) {
        MEM_UPLOAD_FINI();
        RARead(&file, sector_buffer, 512);
        MEM_UPLOAD_INIT(adr);
  40199c:	ab 46 00 00 	l.ori r26,r6,0x0
  int i=0;
  int adr;

  if (RAOpen(&file, BALL_FILE)) {
    RARead(&file, sector_buffer, 512);
    MEM_UPLOAD_INIT(BALL_ADDRESS);
  4019a0:	d4 0e 18 00 	l.sw 0x0(r14),r3
    adr = BALL_ADDRESS;
    for (x=0; x<BALL_SIZE/2; x++) {
      if (i == 512) {
        MEM_UPLOAD_FINI();
        RARead(&file, sector_buffer, 512);
        MEM_UPLOAD_INIT(adr);
  4019a4:	ab 04 00 00 	l.ori r24,r4,0x0
  int i=0;
  int adr;

  if (RAOpen(&file, BALL_FILE)) {
    RARead(&file, sector_buffer, 512);
    MEM_UPLOAD_INIT(BALL_ADDRESS);
  4019a8:	84 6e 00 00 	l.lwz r3,0x0(r14)
  4019ac:	9c 60 00 00 	l.addi r3,r0,0x0
  4019b0:	d4 0e 18 00 	l.sw 0x0(r14),r3
  4019b4:	84 6e 00 00 	l.lwz r3,0x0(r14)
        MEM_UPLOAD_FINI();
        RARead(&file, sector_buffer, 512);
        MEM_UPLOAD_INIT(adr);
        i = 0;
      }
      SPI(sector_buffer[i++]);
  4019b8:	00 00 00 4d 	l.j 401aec <BootUploadBall+0x200>
  4019bc:	18 80 00 41 	l.movhi r4,0x41
  if (RAOpen(&file, BALL_FILE)) {
    RARead(&file, sector_buffer, 512);
    MEM_UPLOAD_INIT(BALL_ADDRESS);
    adr = BALL_ADDRESS;
    for (x=0; x<BALL_SIZE/2; x++) {
      if (i == 512) {
  4019c0:	bc 25 02 00 	l.sfnei r5,0x200
  4019c4:	10 00 00 49 	l.bf 401ae8 <BootUploadBall+0x1fc>
  4019c8:	9e 10 00 02 	l.addi r16,r16,0x2
        MEM_UPLOAD_FINI();
  4019cc:	d4 14 e0 00 	l.sw 0x0(r20),r28
        RARead(&file, sector_buffer, 512);
  4019d0:	18 80 00 41 	l.movhi r4,0x41
    RARead(&file, sector_buffer, 512);
    MEM_UPLOAD_INIT(BALL_ADDRESS);
    adr = BALL_ADDRESS;
    for (x=0; x<BALL_SIZE/2; x++) {
      if (i == 512) {
        MEM_UPLOAD_FINI();
  4019d4:	84 62 00 00 	l.lwz r3,0x0(r2)
  4019d8:	84 62 00 00 	l.lwz r3,0x0(r2)
  4019dc:	84 62 00 00 	l.lwz r3,0x0(r2)
  4019e0:	84 62 00 00 	l.lwz r3,0x0(r2)
  4019e4:	84 62 00 00 	l.lwz r3,0x0(r2)
  4019e8:	84 62 00 00 	l.lwz r3,0x0(r2)
  4019ec:	84 62 00 00 	l.lwz r3,0x0(r2)
  4019f0:	84 62 00 00 	l.lwz r3,0x0(r2)
  4019f4:	84 62 00 00 	l.lwz r3,0x0(r2)
  4019f8:	84 62 00 00 	l.lwz r3,0x0(r2)
  4019fc:	84 62 00 00 	l.lwz r3,0x0(r2)
  401a00:	84 62 00 00 	l.lwz r3,0x0(r2)
  401a04:	84 62 00 00 	l.lwz r3,0x0(r2)
  401a08:	84 62 00 00 	l.lwz r3,0x0(r2)
  401a0c:	84 62 00 00 	l.lwz r3,0x0(r2)
  401a10:	84 62 00 00 	l.lwz r3,0x0(r2)
  401a14:	84 62 00 00 	l.lwz r3,0x0(r2)
  401a18:	84 62 00 00 	l.lwz r3,0x0(r2)
  401a1c:	84 62 00 00 	l.lwz r3,0x0(r2)
  401a20:	84 62 00 00 	l.lwz r3,0x0(r2)
  401a24:	84 62 00 00 	l.lwz r3,0x0(r2)
  401a28:	84 62 00 00 	l.lwz r3,0x0(r2)
  401a2c:	84 62 00 00 	l.lwz r3,0x0(r2)
  401a30:	84 62 00 00 	l.lwz r3,0x0(r2)
  401a34:	84 62 00 00 	l.lwz r3,0x0(r2)
  401a38:	84 62 00 00 	l.lwz r3,0x0(r2)
  401a3c:	84 62 00 00 	l.lwz r3,0x0(r2)
  401a40:	84 62 00 00 	l.lwz r3,0x0(r2)
  401a44:	84 62 00 00 	l.lwz r3,0x0(r2)
  401a48:	84 62 00 00 	l.lwz r3,0x0(r2)
  401a4c:	84 62 00 00 	l.lwz r3,0x0(r2)
  401a50:	84 62 00 00 	l.lwz r3,0x0(r2)
  401a54:	84 62 00 00 	l.lwz r3,0x0(r2)
  401a58:	84 62 00 00 	l.lwz r3,0x0(r2)
  401a5c:	84 62 00 00 	l.lwz r3,0x0(r2)
  401a60:	84 62 00 00 	l.lwz r3,0x0(r2)
  401a64:	84 62 00 00 	l.lwz r3,0x0(r2)
  401a68:	84 62 00 00 	l.lwz r3,0x0(r2)
  401a6c:	84 62 00 00 	l.lwz r3,0x0(r2)
  401a70:	84 62 00 00 	l.lwz r3,0x0(r2)
  401a74:	84 62 00 00 	l.lwz r3,0x0(r2)
  401a78:	84 62 00 00 	l.lwz r3,0x0(r2)
  401a7c:	84 62 00 00 	l.lwz r3,0x0(r2)
  401a80:	84 62 00 00 	l.lwz r3,0x0(r2)
  401a84:	84 62 00 00 	l.lwz r3,0x0(r2)
  401a88:	84 62 00 00 	l.lwz r3,0x0(r2)
  401a8c:	84 62 00 00 	l.lwz r3,0x0(r2)
  401a90:	84 62 00 00 	l.lwz r3,0x0(r2)
        RARead(&file, sector_buffer, 512);
  401a94:	a8 61 00 00 	l.ori r3,r1,0x0
  401a98:	48 00 b0 00 	l.jalr r22
  401a9c:	a8 84 a4 dc 	l.ori r4,r4,0xa4dc
        MEM_UPLOAD_INIT(adr);
  401aa0:	d4 14 d0 00 	l.sw 0x0(r20),r26
  401aa4:	d4 0e c0 00 	l.sw 0x0(r14),r24
        i = 0;
  401aa8:	9c a0 00 00 	l.addi r5,r0,0x0
    adr = BALL_ADDRESS;
    for (x=0; x<BALL_SIZE/2; x++) {
      if (i == 512) {
        MEM_UPLOAD_FINI();
        RARead(&file, sector_buffer, 512);
        MEM_UPLOAD_INIT(adr);
  401aac:	84 6e 00 00 	l.lwz r3,0x0(r14)
  401ab0:	a4 70 00 ff 	l.andi r3,r16,0xff
  401ab4:	d4 0e 18 00 	l.sw 0x0(r14),r3
  401ab8:	84 6e 00 00 	l.lwz r3,0x0(r14)
  401abc:	b8 70 00 88 	l.srai r3,r16,0x8
  401ac0:	a4 63 00 ff 	l.andi r3,r3,0xff
  401ac4:	d4 0e 18 00 	l.sw 0x0(r14),r3
  401ac8:	84 6e 00 00 	l.lwz r3,0x0(r14)
  401acc:	b8 70 00 90 	l.srai r3,r16,0x10
  401ad0:	a4 63 00 ff 	l.andi r3,r3,0xff
  401ad4:	d4 0e 18 00 	l.sw 0x0(r14),r3
  401ad8:	84 6e 00 00 	l.lwz r3,0x0(r14)
  401adc:	b8 70 00 58 	l.srli r3,r16,0x18
  401ae0:	d4 0e 18 00 	l.sw 0x0(r14),r3
  401ae4:	84 6e 00 00 	l.lwz r3,0x0(r14)
        i = 0;
      }
      SPI(sector_buffer[i++]);
  401ae8:	18 80 00 41 	l.movhi r4,0x41
  401aec:	a8 84 a4 dc 	l.ori r4,r4,0xa4dc
  401af0:	e0 65 20 00 	l.add r3,r5,r4
  401af4:	8c 63 00 00 	l.lbz r3,0x0(r3)
  401af8:	d4 0e 18 00 	l.sw 0x0(r14),r3
  401afc:	9c 65 00 01 	l.addi r3,r5,0x1
  401b00:	84 8e 00 00 	l.lwz r4,0x0(r14)
      SPI(sector_buffer[i++]);
  401b04:	18 80 00 41 	l.movhi r4,0x41
  401b08:	a8 84 a4 dc 	l.ori r4,r4,0xa4dc
  401b0c:	e0 63 20 00 	l.add r3,r3,r4
  401b10:	8c 63 00 00 	l.lbz r3,0x0(r3)
  401b14:	d4 0e 18 00 	l.sw 0x0(r14),r3
  401b18:	84 6e 00 00 	l.lwz r3,0x0(r14)
      SPIN(); SPIN(); SPIN(); SPIN();
  401b1c:	84 62 00 00 	l.lwz r3,0x0(r2)
  401b20:	84 62 00 00 	l.lwz r3,0x0(r2)
  401b24:	84 62 00 00 	l.lwz r3,0x0(r2)
  401b28:	84 62 00 00 	l.lwz r3,0x0(r2)
  401b2c:	84 62 00 00 	l.lwz r3,0x0(r2)
  401b30:	84 62 00 00 	l.lwz r3,0x0(r2)
  401b34:	84 62 00 00 	l.lwz r3,0x0(r2)
  401b38:	84 62 00 00 	l.lwz r3,0x0(r2)
  401b3c:	84 62 00 00 	l.lwz r3,0x0(r2)
  401b40:	84 62 00 00 	l.lwz r3,0x0(r2)
  401b44:	84 62 00 00 	l.lwz r3,0x0(r2)
  401b48:	84 62 00 00 	l.lwz r3,0x0(r2)
  401b4c:	84 62 00 00 	l.lwz r3,0x0(r2)
  401b50:	84 62 00 00 	l.lwz r3,0x0(r2)
  401b54:	84 62 00 00 	l.lwz r3,0x0(r2)
  401b58:	84 62 00 00 	l.lwz r3,0x0(r2)
  401b5c:	84 62 00 00 	l.lwz r3,0x0(r2)
  401b60:	84 62 00 00 	l.lwz r3,0x0(r2)
  401b64:	84 62 00 00 	l.lwz r3,0x0(r2)
  401b68:	84 62 00 00 	l.lwz r3,0x0(r2)
  401b6c:	84 62 00 00 	l.lwz r3,0x0(r2)
  401b70:	84 62 00 00 	l.lwz r3,0x0(r2)
  401b74:	84 62 00 00 	l.lwz r3,0x0(r2)
  401b78:	84 62 00 00 	l.lwz r3,0x0(r2)
  401b7c:	84 62 00 00 	l.lwz r3,0x0(r2)
  401b80:	84 62 00 00 	l.lwz r3,0x0(r2)
  401b84:	84 62 00 00 	l.lwz r3,0x0(r2)
  401b88:	84 62 00 00 	l.lwz r3,0x0(r2)
  401b8c:	84 62 00 00 	l.lwz r3,0x0(r2)
  401b90:	84 62 00 00 	l.lwz r3,0x0(r2)
  401b94:	84 62 00 00 	l.lwz r3,0x0(r2)
  401b98:	84 62 00 00 	l.lwz r3,0x0(r2)
  401b9c:	84 62 00 00 	l.lwz r3,0x0(r2)
  401ba0:	84 62 00 00 	l.lwz r3,0x0(r2)
  401ba4:	84 62 00 00 	l.lwz r3,0x0(r2)
  401ba8:	84 62 00 00 	l.lwz r3,0x0(r2)
  401bac:	84 62 00 00 	l.lwz r3,0x0(r2)
  401bb0:	84 62 00 00 	l.lwz r3,0x0(r2)
  401bb4:	84 62 00 00 	l.lwz r3,0x0(r2)
  401bb8:	84 62 00 00 	l.lwz r3,0x0(r2)
  401bbc:	84 62 00 00 	l.lwz r3,0x0(r2)
  401bc0:	84 62 00 00 	l.lwz r3,0x0(r2)
  401bc4:	84 62 00 00 	l.lwz r3,0x0(r2)
  401bc8:	84 62 00 00 	l.lwz r3,0x0(r2)
  401bcc:	84 62 00 00 	l.lwz r3,0x0(r2)
  401bd0:	84 62 00 00 	l.lwz r3,0x0(r2)
  401bd4:	84 62 00 00 	l.lwz r3,0x0(r2)
  401bd8:	84 62 00 00 	l.lwz r3,0x0(r2)

  if (RAOpen(&file, BALL_FILE)) {
    RARead(&file, sector_buffer, 512);
    MEM_UPLOAD_INIT(BALL_ADDRESS);
    adr = BALL_ADDRESS;
    for (x=0; x<BALL_SIZE/2; x++) {
  401bdc:	18 60 00 08 	l.movhi r3,0x8
  401be0:	a8 63 df fe 	l.ori r3,r3,0xdffe
  401be4:	e4 30 18 00 	l.sfne r16,r3
  401be8:	13 ff ff 76 	l.bf 4019c0 <BootUploadBall+0xd4>
  401bec:	9c a5 00 02 	l.addi r5,r5,0x2
  401bf0:	9c a5 ff fe 	l.addi r5,r5,0xfffffffe
      SPI(sector_buffer[i++]);
      SPI(sector_buffer[i++]);
      SPIN(); SPIN(); SPIN(); SPIN();
      adr += 2;
    }
    MEM_UPLOAD_FINI();
  401bf4:	18 60 00 80 	l.movhi r3,0x80
  401bf8:	9c 80 00 40 	l.addi r4,r0,0x40
  401bfc:	a8 63 00 20 	l.ori r3,r3,0x20
  401c00:	d4 03 20 00 	l.sw 0x0(r3),r4
  401c04:	84 62 00 00 	l.lwz r3,0x0(r2)
  401c08:	84 62 00 00 	l.lwz r3,0x0(r2)
  401c0c:	84 62 00 00 	l.lwz r3,0x0(r2)
  401c10:	84 62 00 00 	l.lwz r3,0x0(r2)
  401c14:	84 62 00 00 	l.lwz r3,0x0(r2)
  401c18:	84 62 00 00 	l.lwz r3,0x0(r2)
  401c1c:	84 62 00 00 	l.lwz r3,0x0(r2)
  401c20:	84 62 00 00 	l.lwz r3,0x0(r2)
  401c24:	84 62 00 00 	l.lwz r3,0x0(r2)
  401c28:	84 62 00 00 	l.lwz r3,0x0(r2)
  401c2c:	84 62 00 00 	l.lwz r3,0x0(r2)
  401c30:	84 62 00 00 	l.lwz r3,0x0(r2)
  401c34:	84 62 00 00 	l.lwz r3,0x0(r2)
  401c38:	84 62 00 00 	l.lwz r3,0x0(r2)
  401c3c:	84 62 00 00 	l.lwz r3,0x0(r2)
  401c40:	84 62 00 00 	l.lwz r3,0x0(r2)
  401c44:	84 62 00 00 	l.lwz r3,0x0(r2)
  401c48:	84 62 00 00 	l.lwz r3,0x0(r2)
  401c4c:	84 62 00 00 	l.lwz r3,0x0(r2)
  401c50:	84 62 00 00 	l.lwz r3,0x0(r2)
  401c54:	84 62 00 00 	l.lwz r3,0x0(r2)
  401c58:	84 62 00 00 	l.lwz r3,0x0(r2)
  401c5c:	84 62 00 00 	l.lwz r3,0x0(r2)
  401c60:	84 62 00 00 	l.lwz r3,0x0(r2)
  401c64:	84 62 00 00 	l.lwz r3,0x0(r2)
  401c68:	84 62 00 00 	l.lwz r3,0x0(r2)
  401c6c:	84 62 00 00 	l.lwz r3,0x0(r2)
  401c70:	84 62 00 00 	l.lwz r3,0x0(r2)
  401c74:	84 62 00 00 	l.lwz r3,0x0(r2)
  401c78:	84 62 00 00 	l.lwz r3,0x0(r2)
  401c7c:	84 62 00 00 	l.lwz r3,0x0(r2)
  401c80:	84 62 00 00 	l.lwz r3,0x0(r2)
  401c84:	84 62 00 00 	l.lwz r3,0x0(r2)
  401c88:	84 62 00 00 	l.lwz r3,0x0(r2)
  401c8c:	84 62 00 00 	l.lwz r3,0x0(r2)
  401c90:	84 62 00 00 	l.lwz r3,0x0(r2)
  401c94:	84 62 00 00 	l.lwz r3,0x0(r2)
  401c98:	84 62 00 00 	l.lwz r3,0x0(r2)
  401c9c:	84 62 00 00 	l.lwz r3,0x0(r2)
  401ca0:	84 62 00 00 	l.lwz r3,0x0(r2)
  401ca4:	84 62 00 00 	l.lwz r3,0x0(r2)
  401ca8:	84 62 00 00 	l.lwz r3,0x0(r2)
  401cac:	84 62 00 00 	l.lwz r3,0x0(r2)
  401cb0:	84 62 00 00 	l.lwz r3,0x0(r2)
  401cb4:	84 62 00 00 	l.lwz r3,0x0(r2)
  401cb8:	84 62 00 00 	l.lwz r3,0x0(r2)
  401cbc:	84 62 00 00 	l.lwz r3,0x0(r2)
  401cc0:	84 42 00 00 	l.lwz r2,0x0(r2)
  }
}
  401cc4:	9c 21 03 5c 	l.addi r1,r1,0x35c
  401cc8:	85 21 ff fc 	l.lwz r9,0xfffffffc(r1)
  401ccc:	84 41 ff d8 	l.lwz r2,0xffffffd8(r1)
  401cd0:	85 c1 ff dc 	l.lwz r14,0xffffffdc(r1)
  401cd4:	86 01 ff e0 	l.lwz r16,0xffffffe0(r1)
  401cd8:	86 41 ff e4 	l.lwz r18,0xffffffe4(r1)
  401cdc:	86 81 ff e8 	l.lwz r20,0xffffffe8(r1)
  401ce0:	86 c1 ff ec 	l.lwz r22,0xffffffec(r1)
  401ce4:	87 01 ff f0 	l.lwz r24,0xfffffff0(r1)
  401ce8:	87 41 ff f4 	l.lwz r26,0xfffffff4(r1)
  401cec:	44 00 48 00 	l.jr r9
  401cf0:	87 81 ff f8 	l.lwz r28,0xfffffff8(r1)

00401cf4 <BootUploadCopper>:


//// BootUploadCopper() ////
void BootUploadCopper()
{
  401cf4:	d7 e1 4f fc 	l.sw 0xfffffffc(r1),r9
  401cf8:	d7 e1 17 d8 	l.sw 0xffffffd8(r1),r2
  401cfc:	d7 e1 77 dc 	l.sw 0xffffffdc(r1),r14
  401d00:	d7 e1 87 e0 	l.sw 0xffffffe0(r1),r16
  401d04:	d7 e1 97 e4 	l.sw 0xffffffe4(r1),r18
  401d08:	d7 e1 a7 e8 	l.sw 0xffffffe8(r1),r20
  401d0c:	d7 e1 b7 ec 	l.sw 0xffffffec(r1),r22
  401d10:	d7 e1 c7 f0 	l.sw 0xfffffff0(r1),r24
  401d14:	d7 e1 d7 f4 	l.sw 0xfffffff4(r1),r26
  401d18:	d7 e1 e7 f8 	l.sw 0xfffffff8(r1),r28
  RAFile file;
  int x;
  int i=0;
  int adr;

  if (RAOpen(&file, COPPER_FILE)) {
  401d1c:	18 80 00 41 	l.movhi r4,0x41
}


//// BootUploadCopper() ////
void BootUploadCopper()
{
  401d20:	9c 21 fc a4 	l.addi r1,r1,0xfffffca4
  RAFile file;
  int x;
  int i=0;
  int adr;

  if (RAOpen(&file, COPPER_FILE)) {
  401d24:	a8 84 77 67 	l.ori r4,r4,0x7767
  401d28:	04 00 1e 1f 	l.jal 4095a4 <RAOpen>
  401d2c:	a8 61 00 00 	l.ori r3,r1,0x0
  401d30:	bc 0b 00 00 	l.sfeqi r11,0x0
  401d34:	10 00 00 e9 	l.bf 4020d8 <BootUploadCopper+0x3e4>
  401d38:	18 60 00 80 	l.movhi r3,0x80
    RARead(&file, sector_buffer, 512);
  401d3c:	1a c0 00 40 	l.movhi r22,0x40
  401d40:	18 80 00 41 	l.movhi r4,0x41
  401d44:	a8 61 00 00 	l.ori r3,r1,0x0
  401d48:	a8 84 a4 dc 	l.ori r4,r4,0xa4dc
  401d4c:	9c a0 02 00 	l.addi r5,r0,0x200
  401d50:	aa d6 56 a4 	l.ori r22,r22,0x56a4
  401d54:	48 00 b0 00 	l.jalr r22
  401d58:	18 40 00 80 	l.movhi r2,0x80
    MEM_UPLOAD_INIT(COPPER_ADDRESS);
  401d5c:	aa 82 00 20 	l.ori r20,r2,0x20
  401d60:	9c c0 00 44 	l.addi r6,r0,0x44
  401d64:	a9 c2 00 24 	l.ori r14,r2,0x24
  401d68:	9c 80 00 1c 	l.addi r4,r0,0x1c
  401d6c:	d4 14 30 00 	l.sw 0x0(r20),r6
  401d70:	d4 0e 20 00 	l.sw 0x0(r14),r4
    adr = COPPER_ADDRESS;
  401d74:	1a 00 00 08 	l.movhi r16,0x8
  int i=0;
  int adr;

  if (RAOpen(&file, COPPER_FILE)) {
    RARead(&file, sector_buffer, 512);
    MEM_UPLOAD_INIT(COPPER_ADDRESS);
  401d78:	84 6e 00 00 	l.lwz r3,0x0(r14)
  401d7c:	9c 60 00 80 	l.addi r3,r0,0x80
    adr = COPPER_ADDRESS;
  401d80:	aa 10 e6 80 	l.ori r16,r16,0xe680
  int i=0;
  int adr;

  if (RAOpen(&file, COPPER_FILE)) {
    RARead(&file, sector_buffer, 512);
    MEM_UPLOAD_INIT(COPPER_ADDRESS);
  401d84:	d4 0e 18 00 	l.sw 0x0(r14),r3
//// BootUploadCopper() ////
void BootUploadCopper()
{
  RAFile file;
  int x;
  int i=0;
  401d88:	9c a0 00 00 	l.addi r5,r0,0x0
  int adr;

  if (RAOpen(&file, COPPER_FILE)) {
    RARead(&file, sector_buffer, 512);
    MEM_UPLOAD_INIT(COPPER_ADDRESS);
  401d8c:	84 6e 00 00 	l.lwz r3,0x0(r14)
  401d90:	9c 60 00 e6 	l.addi r3,r0,0xe6
        MEM_UPLOAD_INIT(adr);
        i = 0;
      }
      SPI(sector_buffer[i++]);
      SPI(sector_buffer[i++]);
      SPIN(); SPIN(); SPIN(); SPIN();
  401d94:	e0 42 20 04 	l.or r2,r2,r4
  int i=0;
  int adr;

  if (RAOpen(&file, COPPER_FILE)) {
    RARead(&file, sector_buffer, 512);
    MEM_UPLOAD_INIT(COPPER_ADDRESS);
  401d98:	d4 0e 18 00 	l.sw 0x0(r14),r3
    adr = COPPER_ADDRESS;
    for (x=0; x<COPPER_SIZE/2; x++) {
      if (i == 512) {
        MEM_UPLOAD_FINI();
  401d9c:	9f 80 00 40 	l.addi r28,r0,0x40
  int i=0;
  int adr;

  if (RAOpen(&file, COPPER_FILE)) {
    RARead(&file, sector_buffer, 512);
    MEM_UPLOAD_INIT(COPPER_ADDRESS);
  401da0:	84 6e 00 00 	l.lwz r3,0x0(r14)
  401da4:	9c 60 00 08 	l.addi r3,r0,0x8
    adr = COPPER_ADDRESS;
    for (x=0; x<COPPER_SIZE/2; x++) {
      if (i == 512) {
        MEM_UPLOAD_FINI();
        RARead(&file, sector_buffer, 512);
        MEM_UPLOAD_INIT(adr);
  401da8:	ab 46 00 00 	l.ori r26,r6,0x0
  int i=0;
  int adr;

  if (RAOpen(&file, COPPER_FILE)) {
    RARead(&file, sector_buffer, 512);
    MEM_UPLOAD_INIT(COPPER_ADDRESS);
  401dac:	d4 0e 18 00 	l.sw 0x0(r14),r3
    adr = COPPER_ADDRESS;
    for (x=0; x<COPPER_SIZE/2; x++) {
      if (i == 512) {
        MEM_UPLOAD_FINI();
        RARead(&file, sector_buffer, 512);
        MEM_UPLOAD_INIT(adr);
  401db0:	ab 04 00 00 	l.ori r24,r4,0x0
  int i=0;
  int adr;

  if (RAOpen(&file, COPPER_FILE)) {
    RARead(&file, sector_buffer, 512);
    MEM_UPLOAD_INIT(COPPER_ADDRESS);
  401db4:	84 6e 00 00 	l.lwz r3,0x0(r14)
  401db8:	9c 60 00 00 	l.addi r3,r0,0x0
  401dbc:	d4 0e 18 00 	l.sw 0x0(r14),r3
  401dc0:	84 6e 00 00 	l.lwz r3,0x0(r14)
        MEM_UPLOAD_FINI();
        RARead(&file, sector_buffer, 512);
        MEM_UPLOAD_INIT(adr);
        i = 0;
      }
      SPI(sector_buffer[i++]);
  401dc4:	00 00 00 4d 	l.j 401ef8 <BootUploadCopper+0x204>
  401dc8:	18 80 00 41 	l.movhi r4,0x41
  if (RAOpen(&file, COPPER_FILE)) {
    RARead(&file, sector_buffer, 512);
    MEM_UPLOAD_INIT(COPPER_ADDRESS);
    adr = COPPER_ADDRESS;
    for (x=0; x<COPPER_SIZE/2; x++) {
      if (i == 512) {
  401dcc:	bc 25 02 00 	l.sfnei r5,0x200
  401dd0:	10 00 00 49 	l.bf 401ef4 <BootUploadCopper+0x200>
  401dd4:	9e 10 00 02 	l.addi r16,r16,0x2
        MEM_UPLOAD_FINI();
  401dd8:	d4 14 e0 00 	l.sw 0x0(r20),r28
        RARead(&file, sector_buffer, 512);
  401ddc:	18 80 00 41 	l.movhi r4,0x41
    RARead(&file, sector_buffer, 512);
    MEM_UPLOAD_INIT(COPPER_ADDRESS);
    adr = COPPER_ADDRESS;
    for (x=0; x<COPPER_SIZE/2; x++) {
      if (i == 512) {
        MEM_UPLOAD_FINI();
  401de0:	84 62 00 00 	l.lwz r3,0x0(r2)
  401de4:	84 62 00 00 	l.lwz r3,0x0(r2)
  401de8:	84 62 00 00 	l.lwz r3,0x0(r2)
  401dec:	84 62 00 00 	l.lwz r3,0x0(r2)
  401df0:	84 62 00 00 	l.lwz r3,0x0(r2)
  401df4:	84 62 00 00 	l.lwz r3,0x0(r2)
  401df8:	84 62 00 00 	l.lwz r3,0x0(r2)
  401dfc:	84 62 00 00 	l.lwz r3,0x0(r2)
  401e00:	84 62 00 00 	l.lwz r3,0x0(r2)
  401e04:	84 62 00 00 	l.lwz r3,0x0(r2)
  401e08:	84 62 00 00 	l.lwz r3,0x0(r2)
  401e0c:	84 62 00 00 	l.lwz r3,0x0(r2)
  401e10:	84 62 00 00 	l.lwz r3,0x0(r2)
  401e14:	84 62 00 00 	l.lwz r3,0x0(r2)
  401e18:	84 62 00 00 	l.lwz r3,0x0(r2)
  401e1c:	84 62 00 00 	l.lwz r3,0x0(r2)
  401e20:	84 62 00 00 	l.lwz r3,0x0(r2)
  401e24:	84 62 00 00 	l.lwz r3,0x0(r2)
  401e28:	84 62 00 00 	l.lwz r3,0x0(r2)
  401e2c:	84 62 00 00 	l.lwz r3,0x0(r2)
  401e30:	84 62 00 00 	l.lwz r3,0x0(r2)
  401e34:	84 62 00 00 	l.lwz r3,0x0(r2)
  401e38:	84 62 00 00 	l.lwz r3,0x0(r2)
  401e3c:	84 62 00 00 	l.lwz r3,0x0(r2)
  401e40:	84 62 00 00 	l.lwz r3,0x0(r2)
  401e44:	84 62 00 00 	l.lwz r3,0x0(r2)
  401e48:	84 62 00 00 	l.lwz r3,0x0(r2)
  401e4c:	84 62 00 00 	l.lwz r3,0x0(r2)
  401e50:	84 62 00 00 	l.lwz r3,0x0(r2)
  401e54:	84 62 00 00 	l.lwz r3,0x0(r2)
  401e58:	84 62 00 00 	l.lwz r3,0x0(r2)
  401e5c:	84 62 00 00 	l.lwz r3,0x0(r2)
  401e60:	84 62 00 00 	l.lwz r3,0x0(r2)
  401e64:	84 62 00 00 	l.lwz r3,0x0(r2)
  401e68:	84 62 00 00 	l.lwz r3,0x0(r2)
  401e6c:	84 62 00 00 	l.lwz r3,0x0(r2)
  401e70:	84 62 00 00 	l.lwz r3,0x0(r2)
  401e74:	84 62 00 00 	l.lwz r3,0x0(r2)
  401e78:	84 62 00 00 	l.lwz r3,0x0(r2)
  401e7c:	84 62 00 00 	l.lwz r3,0x0(r2)
  401e80:	84 62 00 00 	l.lwz r3,0x0(r2)
  401e84:	84 62 00 00 	l.lwz r3,0x0(r2)
  401e88:	84 62 00 00 	l.lwz r3,0x0(r2)
  401e8c:	84 62 00 00 	l.lwz r3,0x0(r2)
  401e90:	84 62 00 00 	l.lwz r3,0x0(r2)
  401e94:	84 62 00 00 	l.lwz r3,0x0(r2)
  401e98:	84 62 00 00 	l.lwz r3,0x0(r2)
  401e9c:	84 62 00 00 	l.lwz r3,0x0(r2)
        RARead(&file, sector_buffer, 512);
  401ea0:	a8 61 00 00 	l.ori r3,r1,0x0
  401ea4:	48 00 b0 00 	l.jalr r22
  401ea8:	a8 84 a4 dc 	l.ori r4,r4,0xa4dc
        MEM_UPLOAD_INIT(adr);
  401eac:	d4 14 d0 00 	l.sw 0x0(r20),r26
  401eb0:	d4 0e c0 00 	l.sw 0x0(r14),r24
        i = 0;
  401eb4:	9c a0 00 00 	l.addi r5,r0,0x0
    adr = COPPER_ADDRESS;
    for (x=0; x<COPPER_SIZE/2; x++) {
      if (i == 512) {
        MEM_UPLOAD_FINI();
        RARead(&file, sector_buffer, 512);
        MEM_UPLOAD_INIT(adr);
  401eb8:	84 6e 00 00 	l.lwz r3,0x0(r14)
  401ebc:	a4 70 00 ff 	l.andi r3,r16,0xff
  401ec0:	d4 0e 18 00 	l.sw 0x0(r14),r3
  401ec4:	84 6e 00 00 	l.lwz r3,0x0(r14)
  401ec8:	b8 70 00 88 	l.srai r3,r16,0x8
  401ecc:	a4 63 00 ff 	l.andi r3,r3,0xff
  401ed0:	d4 0e 18 00 	l.sw 0x0(r14),r3
  401ed4:	84 6e 00 00 	l.lwz r3,0x0(r14)
  401ed8:	b8 70 00 90 	l.srai r3,r16,0x10
  401edc:	a4 63 00 ff 	l.andi r3,r3,0xff
  401ee0:	d4 0e 18 00 	l.sw 0x0(r14),r3
  401ee4:	84 6e 00 00 	l.lwz r3,0x0(r14)
  401ee8:	b8 70 00 58 	l.srli r3,r16,0x18
  401eec:	d4 0e 18 00 	l.sw 0x0(r14),r3
  401ef0:	84 6e 00 00 	l.lwz r3,0x0(r14)
        i = 0;
      }
      SPI(sector_buffer[i++]);
  401ef4:	18 80 00 41 	l.movhi r4,0x41
  401ef8:	a8 84 a4 dc 	l.ori r4,r4,0xa4dc
  401efc:	e0 65 20 00 	l.add r3,r5,r4
  401f00:	8c 63 00 00 	l.lbz r3,0x0(r3)
  401f04:	d4 0e 18 00 	l.sw 0x0(r14),r3
  401f08:	9c 65 00 01 	l.addi r3,r5,0x1
  401f0c:	84 8e 00 00 	l.lwz r4,0x0(r14)
      SPI(sector_buffer[i++]);
  401f10:	18 80 00 41 	l.movhi r4,0x41
  401f14:	a8 84 a4 dc 	l.ori r4,r4,0xa4dc
  401f18:	e0 63 20 00 	l.add r3,r3,r4
  401f1c:	8c 63 00 00 	l.lbz r3,0x0(r3)
  401f20:	d4 0e 18 00 	l.sw 0x0(r14),r3
  401f24:	84 6e 00 00 	l.lwz r3,0x0(r14)
      SPIN(); SPIN(); SPIN(); SPIN();
  401f28:	84 62 00 00 	l.lwz r3,0x0(r2)
  401f2c:	84 62 00 00 	l.lwz r3,0x0(r2)
  401f30:	84 62 00 00 	l.lwz r3,0x0(r2)
  401f34:	84 62 00 00 	l.lwz r3,0x0(r2)
  401f38:	84 62 00 00 	l.lwz r3,0x0(r2)
  401f3c:	84 62 00 00 	l.lwz r3,0x0(r2)
  401f40:	84 62 00 00 	l.lwz r3,0x0(r2)
  401f44:	84 62 00 00 	l.lwz r3,0x0(r2)
  401f48:	84 62 00 00 	l.lwz r3,0x0(r2)
  401f4c:	84 62 00 00 	l.lwz r3,0x0(r2)
  401f50:	84 62 00 00 	l.lwz r3,0x0(r2)
  401f54:	84 62 00 00 	l.lwz r3,0x0(r2)
  401f58:	84 62 00 00 	l.lwz r3,0x0(r2)
  401f5c:	84 62 00 00 	l.lwz r3,0x0(r2)
  401f60:	84 62 00 00 	l.lwz r3,0x0(r2)
  401f64:	84 62 00 00 	l.lwz r3,0x0(r2)
  401f68:	84 62 00 00 	l.lwz r3,0x0(r2)
  401f6c:	84 62 00 00 	l.lwz r3,0x0(r2)
  401f70:	84 62 00 00 	l.lwz r3,0x0(r2)
  401f74:	84 62 00 00 	l.lwz r3,0x0(r2)
  401f78:	84 62 00 00 	l.lwz r3,0x0(r2)
  401f7c:	84 62 00 00 	l.lwz r3,0x0(r2)
  401f80:	84 62 00 00 	l.lwz r3,0x0(r2)
  401f84:	84 62 00 00 	l.lwz r3,0x0(r2)
  401f88:	84 62 00 00 	l.lwz r3,0x0(r2)
  401f8c:	84 62 00 00 	l.lwz r3,0x0(r2)
  401f90:	84 62 00 00 	l.lwz r3,0x0(r2)
  401f94:	84 62 00 00 	l.lwz r3,0x0(r2)
  401f98:	84 62 00 00 	l.lwz r3,0x0(r2)
  401f9c:	84 62 00 00 	l.lwz r3,0x0(r2)
  401fa0:	84 62 00 00 	l.lwz r3,0x0(r2)
  401fa4:	84 62 00 00 	l.lwz r3,0x0(r2)
  401fa8:	84 62 00 00 	l.lwz r3,0x0(r2)
  401fac:	84 62 00 00 	l.lwz r3,0x0(r2)
  401fb0:	84 62 00 00 	l.lwz r3,0x0(r2)
  401fb4:	84 62 00 00 	l.lwz r3,0x0(r2)
  401fb8:	84 62 00 00 	l.lwz r3,0x0(r2)
  401fbc:	84 62 00 00 	l.lwz r3,0x0(r2)
  401fc0:	84 62 00 00 	l.lwz r3,0x0(r2)
  401fc4:	84 62 00 00 	l.lwz r3,0x0(r2)
  401fc8:	84 62 00 00 	l.lwz r3,0x0(r2)
  401fcc:	84 62 00 00 	l.lwz r3,0x0(r2)
  401fd0:	84 62 00 00 	l.lwz r3,0x0(r2)
  401fd4:	84 62 00 00 	l.lwz r3,0x0(r2)
  401fd8:	84 62 00 00 	l.lwz r3,0x0(r2)
  401fdc:	84 62 00 00 	l.lwz r3,0x0(r2)
  401fe0:	84 62 00 00 	l.lwz r3,0x0(r2)
  401fe4:	84 62 00 00 	l.lwz r3,0x0(r2)

  if (RAOpen(&file, COPPER_FILE)) {
    RARead(&file, sector_buffer, 512);
    MEM_UPLOAD_INIT(COPPER_ADDRESS);
    adr = COPPER_ADDRESS;
    for (x=0; x<COPPER_SIZE/2; x++) {
  401fe8:	18 60 00 08 	l.movhi r3,0x8
  401fec:	a8 63 e9 da 	l.ori r3,r3,0xe9da
  401ff0:	e4 30 18 00 	l.sfne r16,r3
  401ff4:	13 ff ff 76 	l.bf 401dcc <BootUploadCopper+0xd8>
  401ff8:	9c a5 00 02 	l.addi r5,r5,0x2
  401ffc:	9c a5 ff fe 	l.addi r5,r5,0xfffffffe
      SPI(sector_buffer[i++]);
      SPI(sector_buffer[i++]);
      SPIN(); SPIN(); SPIN(); SPIN();
      adr += 2;
    }
    MEM_UPLOAD_FINI();
  402000:	18 60 00 80 	l.movhi r3,0x80
  402004:	9c 80 00 40 	l.addi r4,r0,0x40
  402008:	a8 63 00 20 	l.ori r3,r3,0x20
  40200c:	d4 03 20 00 	l.sw 0x0(r3),r4
  402010:	84 62 00 00 	l.lwz r3,0x0(r2)
  402014:	84 62 00 00 	l.lwz r3,0x0(r2)
  402018:	84 62 00 00 	l.lwz r3,0x0(r2)
  40201c:	84 62 00 00 	l.lwz r3,0x0(r2)
  402020:	84 62 00 00 	l.lwz r3,0x0(r2)
  402024:	84 62 00 00 	l.lwz r3,0x0(r2)
  402028:	84 62 00 00 	l.lwz r3,0x0(r2)
  40202c:	84 62 00 00 	l.lwz r3,0x0(r2)
  402030:	84 62 00 00 	l.lwz r3,0x0(r2)
  402034:	84 62 00 00 	l.lwz r3,0x0(r2)
  402038:	84 62 00 00 	l.lwz r3,0x0(r2)
  40203c:	84 62 00 00 	l.lwz r3,0x0(r2)
  402040:	84 62 00 00 	l.lwz r3,0x0(r2)
  402044:	84 62 00 00 	l.lwz r3,0x0(r2)
  402048:	84 62 00 00 	l.lwz r3,0x0(r2)
  40204c:	84 62 00 00 	l.lwz r3,0x0(r2)
  402050:	84 62 00 00 	l.lwz r3,0x0(r2)
  402054:	84 62 00 00 	l.lwz r3,0x0(r2)
  402058:	84 62 00 00 	l.lwz r3,0x0(r2)
  40205c:	84 62 00 00 	l.lwz r3,0x0(r2)
  402060:	84 62 00 00 	l.lwz r3,0x0(r2)
  402064:	84 62 00 00 	l.lwz r3,0x0(r2)
  402068:	84 62 00 00 	l.lwz r3,0x0(r2)
  40206c:	84 62 00 00 	l.lwz r3,0x0(r2)
  402070:	84 62 00 00 	l.lwz r3,0x0(r2)
  402074:	84 62 00 00 	l.lwz r3,0x0(r2)
  402078:	84 62 00 00 	l.lwz r3,0x0(r2)
  40207c:	84 62 00 00 	l.lwz r3,0x0(r2)
  402080:	84 62 00 00 	l.lwz r3,0x0(r2)
  402084:	84 62 00 00 	l.lwz r3,0x0(r2)
  402088:	84 62 00 00 	l.lwz r3,0x0(r2)
  40208c:	84 62 00 00 	l.lwz r3,0x0(r2)
  402090:	84 62 00 00 	l.lwz r3,0x0(r2)
  402094:	84 62 00 00 	l.lwz r3,0x0(r2)
  402098:	84 62 00 00 	l.lwz r3,0x0(r2)
  40209c:	84 62 00 00 	l.lwz r3,0x0(r2)
  4020a0:	84 62 00 00 	l.lwz r3,0x0(r2)
  4020a4:	84 62 00 00 	l.lwz r3,0x0(r2)
  4020a8:	84 62 00 00 	l.lwz r3,0x0(r2)
  4020ac:	84 62 00 00 	l.lwz r3,0x0(r2)
  4020b0:	84 62 00 00 	l.lwz r3,0x0(r2)
  4020b4:	84 62 00 00 	l.lwz r3,0x0(r2)
  4020b8:	84 62 00 00 	l.lwz r3,0x0(r2)
  4020bc:	84 62 00 00 	l.lwz r3,0x0(r2)
  4020c0:	84 62 00 00 	l.lwz r3,0x0(r2)
  4020c4:	84 62 00 00 	l.lwz r3,0x0(r2)
  4020c8:	84 62 00 00 	l.lwz r3,0x0(r2)
  4020cc:	84 42 00 00 	l.lwz r2,0x0(r2)
    MEM_WRITE16(0x00e6); MEM_WRITE16(0x5000);
    MEM_WRITE16(0x0100); MEM_WRITE16(0xa200);
    MEM_WRITE16(0xffff); MEM_WRITE16(0xfffe);
    MEM_UPLOAD_FINI();
  }
}
  4020d0:	00 00 02 c0 	l.j 402bd0 <BootUploadCopper+0xedc>
  4020d4:	9c 21 03 5c 	l.addi r1,r1,0x35c
      SPIN(); SPIN(); SPIN(); SPIN();
      adr += 2;
    }
    MEM_UPLOAD_FINI();
  } else {
    MEM_UPLOAD_INIT(COPPER_ADDRESS);
  4020d8:	9c 40 00 44 	l.addi r2,r0,0x44
  4020dc:	a8 a3 00 20 	l.ori r5,r3,0x20
  4020e0:	9c 80 00 1c 	l.addi r4,r0,0x1c
  4020e4:	d4 05 10 00 	l.sw 0x0(r5),r2
  4020e8:	a8 43 00 24 	l.ori r2,r3,0x24
  4020ec:	9c c0 00 e6 	l.addi r6,r0,0xe6
  4020f0:	d4 02 20 00 	l.sw 0x0(r2),r4
    MEM_WRITE16(0x00e0); MEM_WRITE16(0x0008);
  4020f4:	a8 63 00 1c 	l.ori r3,r3,0x1c
      SPIN(); SPIN(); SPIN(); SPIN();
      adr += 2;
    }
    MEM_UPLOAD_FINI();
  } else {
    MEM_UPLOAD_INIT(COPPER_ADDRESS);
  4020f8:	84 82 00 00 	l.lwz r4,0x0(r2)
  4020fc:	9c 80 00 80 	l.addi r4,r0,0x80
  402100:	d4 02 20 00 	l.sw 0x0(r2),r4
  402104:	84 82 00 00 	l.lwz r4,0x0(r2)
  402108:	d4 02 30 00 	l.sw 0x0(r2),r6
  40210c:	84 82 00 00 	l.lwz r4,0x0(r2)
  402110:	9c 80 00 08 	l.addi r4,r0,0x8
  402114:	d4 02 20 00 	l.sw 0x0(r2),r4
  402118:	84 e2 00 00 	l.lwz r7,0x0(r2)
  40211c:	d4 02 58 00 	l.sw 0x0(r2),r11
  402120:	84 e2 00 00 	l.lwz r7,0x0(r2)
    MEM_WRITE16(0x00e0); MEM_WRITE16(0x0008);
  402124:	d4 02 58 00 	l.sw 0x0(r2),r11
  402128:	84 e2 00 00 	l.lwz r7,0x0(r2)
  40212c:	9c e0 00 e0 	l.addi r7,r0,0xe0
  402130:	d4 02 38 00 	l.sw 0x0(r2),r7
  402134:	84 e2 00 00 	l.lwz r7,0x0(r2)
  402138:	84 e3 00 00 	l.lwz r7,0x0(r3)
  40213c:	84 e3 00 00 	l.lwz r7,0x0(r3)
  402140:	84 e3 00 00 	l.lwz r7,0x0(r3)
  402144:	84 e3 00 00 	l.lwz r7,0x0(r3)
  402148:	84 e3 00 00 	l.lwz r7,0x0(r3)
  40214c:	84 e3 00 00 	l.lwz r7,0x0(r3)
  402150:	84 e3 00 00 	l.lwz r7,0x0(r3)
  402154:	84 e3 00 00 	l.lwz r7,0x0(r3)
  402158:	84 e3 00 00 	l.lwz r7,0x0(r3)
  40215c:	84 e3 00 00 	l.lwz r7,0x0(r3)
  402160:	84 e3 00 00 	l.lwz r7,0x0(r3)
  402164:	84 e3 00 00 	l.lwz r7,0x0(r3)
  402168:	84 e3 00 00 	l.lwz r7,0x0(r3)
  40216c:	84 e3 00 00 	l.lwz r7,0x0(r3)
  402170:	84 e3 00 00 	l.lwz r7,0x0(r3)
  402174:	84 e3 00 00 	l.lwz r7,0x0(r3)
  402178:	84 e3 00 00 	l.lwz r7,0x0(r3)
  40217c:	84 e3 00 00 	l.lwz r7,0x0(r3)
  402180:	84 e3 00 00 	l.lwz r7,0x0(r3)
  402184:	84 e3 00 00 	l.lwz r7,0x0(r3)
  402188:	84 e3 00 00 	l.lwz r7,0x0(r3)
  40218c:	84 e3 00 00 	l.lwz r7,0x0(r3)
  402190:	84 e3 00 00 	l.lwz r7,0x0(r3)
  402194:	84 e3 00 00 	l.lwz r7,0x0(r3)
  402198:	84 e3 00 00 	l.lwz r7,0x0(r3)
  40219c:	84 e3 00 00 	l.lwz r7,0x0(r3)
  4021a0:	84 e3 00 00 	l.lwz r7,0x0(r3)
  4021a4:	84 e3 00 00 	l.lwz r7,0x0(r3)
  4021a8:	84 e3 00 00 	l.lwz r7,0x0(r3)
  4021ac:	84 e3 00 00 	l.lwz r7,0x0(r3)
  4021b0:	84 e3 00 00 	l.lwz r7,0x0(r3)
  4021b4:	84 e3 00 00 	l.lwz r7,0x0(r3)
  4021b8:	84 e3 00 00 	l.lwz r7,0x0(r3)
  4021bc:	84 e3 00 00 	l.lwz r7,0x0(r3)
  4021c0:	84 e3 00 00 	l.lwz r7,0x0(r3)
  4021c4:	84 e3 00 00 	l.lwz r7,0x0(r3)
  4021c8:	84 e3 00 00 	l.lwz r7,0x0(r3)
  4021cc:	84 e3 00 00 	l.lwz r7,0x0(r3)
  4021d0:	84 e3 00 00 	l.lwz r7,0x0(r3)
  4021d4:	84 e3 00 00 	l.lwz r7,0x0(r3)
  4021d8:	84 e3 00 00 	l.lwz r7,0x0(r3)
  4021dc:	84 e3 00 00 	l.lwz r7,0x0(r3)
  4021e0:	84 e3 00 00 	l.lwz r7,0x0(r3)
  4021e4:	84 e3 00 00 	l.lwz r7,0x0(r3)
  4021e8:	84 e3 00 00 	l.lwz r7,0x0(r3)
  4021ec:	84 e3 00 00 	l.lwz r7,0x0(r3)
  4021f0:	84 e3 00 00 	l.lwz r7,0x0(r3)
  4021f4:	84 e3 00 00 	l.lwz r7,0x0(r3)
  4021f8:	d4 02 58 00 	l.sw 0x0(r2),r11
  4021fc:	84 e2 00 00 	l.lwz r7,0x0(r2)
  402200:	d4 02 20 00 	l.sw 0x0(r2),r4
  402204:	84 e2 00 00 	l.lwz r7,0x0(r2)
  402208:	84 e3 00 00 	l.lwz r7,0x0(r3)
  40220c:	84 e3 00 00 	l.lwz r7,0x0(r3)
  402210:	84 e3 00 00 	l.lwz r7,0x0(r3)
  402214:	84 e3 00 00 	l.lwz r7,0x0(r3)
  402218:	84 e3 00 00 	l.lwz r7,0x0(r3)
  40221c:	84 e3 00 00 	l.lwz r7,0x0(r3)
  402220:	84 e3 00 00 	l.lwz r7,0x0(r3)
  402224:	84 e3 00 00 	l.lwz r7,0x0(r3)
  402228:	84 e3 00 00 	l.lwz r7,0x0(r3)
  40222c:	84 e3 00 00 	l.lwz r7,0x0(r3)
  402230:	84 e3 00 00 	l.lwz r7,0x0(r3)
  402234:	84 e3 00 00 	l.lwz r7,0x0(r3)
  402238:	84 e3 00 00 	l.lwz r7,0x0(r3)
  40223c:	84 e3 00 00 	l.lwz r7,0x0(r3)
  402240:	84 e3 00 00 	l.lwz r7,0x0(r3)
  402244:	84 e3 00 00 	l.lwz r7,0x0(r3)
  402248:	84 e3 00 00 	l.lwz r7,0x0(r3)
  40224c:	84 e3 00 00 	l.lwz r7,0x0(r3)
  402250:	84 e3 00 00 	l.lwz r7,0x0(r3)
  402254:	84 e3 00 00 	l.lwz r7,0x0(r3)
  402258:	84 e3 00 00 	l.lwz r7,0x0(r3)
  40225c:	84 e3 00 00 	l.lwz r7,0x0(r3)
  402260:	84 e3 00 00 	l.lwz r7,0x0(r3)
  402264:	84 e3 00 00 	l.lwz r7,0x0(r3)
  402268:	84 e3 00 00 	l.lwz r7,0x0(r3)
  40226c:	84 e3 00 00 	l.lwz r7,0x0(r3)
  402270:	84 e3 00 00 	l.lwz r7,0x0(r3)
  402274:	84 e3 00 00 	l.lwz r7,0x0(r3)
  402278:	84 e3 00 00 	l.lwz r7,0x0(r3)
  40227c:	84 e3 00 00 	l.lwz r7,0x0(r3)
  402280:	84 e3 00 00 	l.lwz r7,0x0(r3)
  402284:	84 e3 00 00 	l.lwz r7,0x0(r3)
  402288:	84 e3 00 00 	l.lwz r7,0x0(r3)
  40228c:	84 e3 00 00 	l.lwz r7,0x0(r3)
  402290:	84 e3 00 00 	l.lwz r7,0x0(r3)
  402294:	84 e3 00 00 	l.lwz r7,0x0(r3)
  402298:	84 e3 00 00 	l.lwz r7,0x0(r3)
  40229c:	84 e3 00 00 	l.lwz r7,0x0(r3)
  4022a0:	84 e3 00 00 	l.lwz r7,0x0(r3)
  4022a4:	84 e3 00 00 	l.lwz r7,0x0(r3)
  4022a8:	84 e3 00 00 	l.lwz r7,0x0(r3)
  4022ac:	84 e3 00 00 	l.lwz r7,0x0(r3)
  4022b0:	84 e3 00 00 	l.lwz r7,0x0(r3)
  4022b4:	84 e3 00 00 	l.lwz r7,0x0(r3)
  4022b8:	84 e3 00 00 	l.lwz r7,0x0(r3)
  4022bc:	84 e3 00 00 	l.lwz r7,0x0(r3)
  4022c0:	84 e3 00 00 	l.lwz r7,0x0(r3)
  4022c4:	84 e3 00 00 	l.lwz r7,0x0(r3)
    MEM_WRITE16(0x00e2); MEM_WRITE16(0x0000);
  4022c8:	d4 02 58 00 	l.sw 0x0(r2),r11
  4022cc:	84 e2 00 00 	l.lwz r7,0x0(r2)
  4022d0:	9c e0 00 e2 	l.addi r7,r0,0xe2
  4022d4:	d4 02 38 00 	l.sw 0x0(r2),r7
  4022d8:	84 e2 00 00 	l.lwz r7,0x0(r2)
  4022dc:	84 e3 00 00 	l.lwz r7,0x0(r3)
  4022e0:	84 e3 00 00 	l.lwz r7,0x0(r3)
  4022e4:	84 e3 00 00 	l.lwz r7,0x0(r3)
  4022e8:	84 e3 00 00 	l.lwz r7,0x0(r3)
  4022ec:	84 e3 00 00 	l.lwz r7,0x0(r3)
  4022f0:	84 e3 00 00 	l.lwz r7,0x0(r3)
  4022f4:	84 e3 00 00 	l.lwz r7,0x0(r3)
  4022f8:	84 e3 00 00 	l.lwz r7,0x0(r3)
  4022fc:	84 e3 00 00 	l.lwz r7,0x0(r3)
  402300:	84 e3 00 00 	l.lwz r7,0x0(r3)
  402304:	84 e3 00 00 	l.lwz r7,0x0(r3)
  402308:	84 e3 00 00 	l.lwz r7,0x0(r3)
  40230c:	84 e3 00 00 	l.lwz r7,0x0(r3)
  402310:	84 e3 00 00 	l.lwz r7,0x0(r3)
  402314:	84 e3 00 00 	l.lwz r7,0x0(r3)
  402318:	84 e3 00 00 	l.lwz r7,0x0(r3)
  40231c:	84 e3 00 00 	l.lwz r7,0x0(r3)
  402320:	84 e3 00 00 	l.lwz r7,0x0(r3)
  402324:	84 e3 00 00 	l.lwz r7,0x0(r3)
  402328:	84 e3 00 00 	l.lwz r7,0x0(r3)
  40232c:	84 e3 00 00 	l.lwz r7,0x0(r3)
  402330:	84 e3 00 00 	l.lwz r7,0x0(r3)
  402334:	84 e3 00 00 	l.lwz r7,0x0(r3)
  402338:	84 e3 00 00 	l.lwz r7,0x0(r3)
  40233c:	84 e3 00 00 	l.lwz r7,0x0(r3)
  402340:	84 e3 00 00 	l.lwz r7,0x0(r3)
  402344:	84 e3 00 00 	l.lwz r7,0x0(r3)
  402348:	84 e3 00 00 	l.lwz r7,0x0(r3)
  40234c:	84 e3 00 00 	l.lwz r7,0x0(r3)
  402350:	84 e3 00 00 	l.lwz r7,0x0(r3)
  402354:	84 e3 00 00 	l.lwz r7,0x0(r3)
  402358:	84 e3 00 00 	l.lwz r7,0x0(r3)
  40235c:	84 e3 00 00 	l.lwz r7,0x0(r3)
  402360:	84 e3 00 00 	l.lwz r7,0x0(r3)
  402364:	84 e3 00 00 	l.lwz r7,0x0(r3)
  402368:	84 e3 00 00 	l.lwz r7,0x0(r3)
  40236c:	84 e3 00 00 	l.lwz r7,0x0(r3)
  402370:	84 e3 00 00 	l.lwz r7,0x0(r3)
  402374:	84 e3 00 00 	l.lwz r7,0x0(r3)
  402378:	84 e3 00 00 	l.lwz r7,0x0(r3)
  40237c:	84 e3 00 00 	l.lwz r7,0x0(r3)
  402380:	84 e3 00 00 	l.lwz r7,0x0(r3)
  402384:	84 e3 00 00 	l.lwz r7,0x0(r3)
  402388:	84 e3 00 00 	l.lwz r7,0x0(r3)
  40238c:	84 e3 00 00 	l.lwz r7,0x0(r3)
  402390:	84 e3 00 00 	l.lwz r7,0x0(r3)
  402394:	84 e3 00 00 	l.lwz r7,0x0(r3)
  402398:	84 e3 00 00 	l.lwz r7,0x0(r3)
  40239c:	d4 02 58 00 	l.sw 0x0(r2),r11
  4023a0:	84 e2 00 00 	l.lwz r7,0x0(r2)
  4023a4:	d4 02 58 00 	l.sw 0x0(r2),r11
  4023a8:	84 e2 00 00 	l.lwz r7,0x0(r2)
  4023ac:	84 e3 00 00 	l.lwz r7,0x0(r3)
  4023b0:	84 e3 00 00 	l.lwz r7,0x0(r3)
  4023b4:	84 e3 00 00 	l.lwz r7,0x0(r3)
  4023b8:	84 e3 00 00 	l.lwz r7,0x0(r3)
  4023bc:	84 e3 00 00 	l.lwz r7,0x0(r3)
  4023c0:	84 e3 00 00 	l.lwz r7,0x0(r3)
  4023c4:	84 e3 00 00 	l.lwz r7,0x0(r3)
  4023c8:	84 e3 00 00 	l.lwz r7,0x0(r3)
  4023cc:	84 e3 00 00 	l.lwz r7,0x0(r3)
  4023d0:	84 e3 00 00 	l.lwz r7,0x0(r3)
  4023d4:	84 e3 00 00 	l.lwz r7,0x0(r3)
  4023d8:	84 e3 00 00 	l.lwz r7,0x0(r3)
  4023dc:	84 e3 00 00 	l.lwz r7,0x0(r3)
  4023e0:	84 e3 00 00 	l.lwz r7,0x0(r3)
  4023e4:	84 e3 00 00 	l.lwz r7,0x0(r3)
  4023e8:	84 e3 00 00 	l.lwz r7,0x0(r3)
  4023ec:	84 e3 00 00 	l.lwz r7,0x0(r3)
  4023f0:	84 e3 00 00 	l.lwz r7,0x0(r3)
  4023f4:	84 e3 00 00 	l.lwz r7,0x0(r3)
  4023f8:	84 e3 00 00 	l.lwz r7,0x0(r3)
  4023fc:	84 e3 00 00 	l.lwz r7,0x0(r3)
  402400:	84 e3 00 00 	l.lwz r7,0x0(r3)
  402404:	84 e3 00 00 	l.lwz r7,0x0(r3)
  402408:	84 e3 00 00 	l.lwz r7,0x0(r3)
  40240c:	84 e3 00 00 	l.lwz r7,0x0(r3)
  402410:	84 e3 00 00 	l.lwz r7,0x0(r3)
  402414:	84 e3 00 00 	l.lwz r7,0x0(r3)
  402418:	84 e3 00 00 	l.lwz r7,0x0(r3)
  40241c:	84 e3 00 00 	l.lwz r7,0x0(r3)
  402420:	84 e3 00 00 	l.lwz r7,0x0(r3)
  402424:	84 e3 00 00 	l.lwz r7,0x0(r3)
  402428:	84 e3 00 00 	l.lwz r7,0x0(r3)
  40242c:	84 e3 00 00 	l.lwz r7,0x0(r3)
  402430:	84 e3 00 00 	l.lwz r7,0x0(r3)
  402434:	84 e3 00 00 	l.lwz r7,0x0(r3)
  402438:	84 e3 00 00 	l.lwz r7,0x0(r3)
  40243c:	84 e3 00 00 	l.lwz r7,0x0(r3)
  402440:	84 e3 00 00 	l.lwz r7,0x0(r3)
  402444:	84 e3 00 00 	l.lwz r7,0x0(r3)
  402448:	84 e3 00 00 	l.lwz r7,0x0(r3)
  40244c:	84 e3 00 00 	l.lwz r7,0x0(r3)
  402450:	84 e3 00 00 	l.lwz r7,0x0(r3)
  402454:	84 e3 00 00 	l.lwz r7,0x0(r3)
  402458:	84 e3 00 00 	l.lwz r7,0x0(r3)
  40245c:	84 e3 00 00 	l.lwz r7,0x0(r3)
  402460:	84 e3 00 00 	l.lwz r7,0x0(r3)
  402464:	84 e3 00 00 	l.lwz r7,0x0(r3)
  402468:	84 e3 00 00 	l.lwz r7,0x0(r3)
    MEM_WRITE16(0x00e4); MEM_WRITE16(0x0008);
  40246c:	d4 02 58 00 	l.sw 0x0(r2),r11
  402470:	84 e2 00 00 	l.lwz r7,0x0(r2)
  402474:	9c e0 00 e4 	l.addi r7,r0,0xe4
  402478:	d4 02 38 00 	l.sw 0x0(r2),r7
  40247c:	84 e2 00 00 	l.lwz r7,0x0(r2)
  402480:	84 e3 00 00 	l.lwz r7,0x0(r3)
  402484:	84 e3 00 00 	l.lwz r7,0x0(r3)
  402488:	84 e3 00 00 	l.lwz r7,0x0(r3)
  40248c:	84 e3 00 00 	l.lwz r7,0x0(r3)
  402490:	84 e3 00 00 	l.lwz r7,0x0(r3)
  402494:	84 e3 00 00 	l.lwz r7,0x0(r3)
  402498:	84 e3 00 00 	l.lwz r7,0x0(r3)
  40249c:	84 e3 00 00 	l.lwz r7,0x0(r3)
  4024a0:	84 e3 00 00 	l.lwz r7,0x0(r3)
  4024a4:	84 e3 00 00 	l.lwz r7,0x0(r3)
  4024a8:	84 e3 00 00 	l.lwz r7,0x0(r3)
  4024ac:	84 e3 00 00 	l.lwz r7,0x0(r3)
  4024b0:	84 e3 00 00 	l.lwz r7,0x0(r3)
  4024b4:	84 e3 00 00 	l.lwz r7,0x0(r3)
  4024b8:	84 e3 00 00 	l.lwz r7,0x0(r3)
  4024bc:	84 e3 00 00 	l.lwz r7,0x0(r3)
  4024c0:	84 e3 00 00 	l.lwz r7,0x0(r3)
  4024c4:	84 e3 00 00 	l.lwz r7,0x0(r3)
  4024c8:	84 e3 00 00 	l.lwz r7,0x0(r3)
  4024cc:	84 e3 00 00 	l.lwz r7,0x0(r3)
  4024d0:	84 e3 00 00 	l.lwz r7,0x0(r3)
  4024d4:	84 e3 00 00 	l.lwz r7,0x0(r3)
  4024d8:	84 e3 00 00 	l.lwz r7,0x0(r3)
  4024dc:	84 e3 00 00 	l.lwz r7,0x0(r3)
  4024e0:	84 e3 00 00 	l.lwz r7,0x0(r3)
  4024e4:	84 e3 00 00 	l.lwz r7,0x0(r3)
  4024e8:	84 e3 00 00 	l.lwz r7,0x0(r3)
  4024ec:	84 e3 00 00 	l.lwz r7,0x0(r3)
  4024f0:	84 e3 00 00 	l.lwz r7,0x0(r3)
  4024f4:	84 e3 00 00 	l.lwz r7,0x0(r3)
  4024f8:	84 e3 00 00 	l.lwz r7,0x0(r3)
  4024fc:	84 e3 00 00 	l.lwz r7,0x0(r3)
  402500:	84 e3 00 00 	l.lwz r7,0x0(r3)
  402504:	84 e3 00 00 	l.lwz r7,0x0(r3)
  402508:	84 e3 00 00 	l.lwz r7,0x0(r3)
  40250c:	84 e3 00 00 	l.lwz r7,0x0(r3)
  402510:	84 e3 00 00 	l.lwz r7,0x0(r3)
  402514:	84 e3 00 00 	l.lwz r7,0x0(r3)
  402518:	84 e3 00 00 	l.lwz r7,0x0(r3)
  40251c:	84 e3 00 00 	l.lwz r7,0x0(r3)
  402520:	84 e3 00 00 	l.lwz r7,0x0(r3)
  402524:	84 e3 00 00 	l.lwz r7,0x0(r3)
  402528:	84 e3 00 00 	l.lwz r7,0x0(r3)
  40252c:	84 e3 00 00 	l.lwz r7,0x0(r3)
  402530:	84 e3 00 00 	l.lwz r7,0x0(r3)
  402534:	84 e3 00 00 	l.lwz r7,0x0(r3)
  402538:	84 e3 00 00 	l.lwz r7,0x0(r3)
  40253c:	84 e3 00 00 	l.lwz r7,0x0(r3)
  402540:	d4 02 58 00 	l.sw 0x0(r2),r11
  402544:	84 e2 00 00 	l.lwz r7,0x0(r2)
  402548:	d4 02 20 00 	l.sw 0x0(r2),r4
  40254c:	84 82 00 00 	l.lwz r4,0x0(r2)
  402550:	84 83 00 00 	l.lwz r4,0x0(r3)
  402554:	84 83 00 00 	l.lwz r4,0x0(r3)
  402558:	84 83 00 00 	l.lwz r4,0x0(r3)
  40255c:	84 83 00 00 	l.lwz r4,0x0(r3)
  402560:	84 83 00 00 	l.lwz r4,0x0(r3)
  402564:	84 83 00 00 	l.lwz r4,0x0(r3)
  402568:	84 83 00 00 	l.lwz r4,0x0(r3)
  40256c:	84 83 00 00 	l.lwz r4,0x0(r3)
  402570:	84 83 00 00 	l.lwz r4,0x0(r3)
  402574:	84 83 00 00 	l.lwz r4,0x0(r3)
  402578:	84 83 00 00 	l.lwz r4,0x0(r3)
  40257c:	84 83 00 00 	l.lwz r4,0x0(r3)
  402580:	84 83 00 00 	l.lwz r4,0x0(r3)
  402584:	84 83 00 00 	l.lwz r4,0x0(r3)
  402588:	84 83 00 00 	l.lwz r4,0x0(r3)
  40258c:	84 83 00 00 	l.lwz r4,0x0(r3)
  402590:	84 83 00 00 	l.lwz r4,0x0(r3)
  402594:	84 83 00 00 	l.lwz r4,0x0(r3)
  402598:	84 83 00 00 	l.lwz r4,0x0(r3)
  40259c:	84 83 00 00 	l.lwz r4,0x0(r3)
  4025a0:	84 83 00 00 	l.lwz r4,0x0(r3)
  4025a4:	84 83 00 00 	l.lwz r4,0x0(r3)
  4025a8:	84 83 00 00 	l.lwz r4,0x0(r3)
  4025ac:	84 83 00 00 	l.lwz r4,0x0(r3)
  4025b0:	84 83 00 00 	l.lwz r4,0x0(r3)
  4025b4:	84 83 00 00 	l.lwz r4,0x0(r3)
  4025b8:	84 83 00 00 	l.lwz r4,0x0(r3)
  4025bc:	84 83 00 00 	l.lwz r4,0x0(r3)
  4025c0:	84 83 00 00 	l.lwz r4,0x0(r3)
  4025c4:	84 83 00 00 	l.lwz r4,0x0(r3)
  4025c8:	84 83 00 00 	l.lwz r4,0x0(r3)
  4025cc:	84 83 00 00 	l.lwz r4,0x0(r3)
  4025d0:	84 83 00 00 	l.lwz r4,0x0(r3)
  4025d4:	84 83 00 00 	l.lwz r4,0x0(r3)
  4025d8:	84 83 00 00 	l.lwz r4,0x0(r3)
  4025dc:	84 83 00 00 	l.lwz r4,0x0(r3)
  4025e0:	84 83 00 00 	l.lwz r4,0x0(r3)
  4025e4:	84 83 00 00 	l.lwz r4,0x0(r3)
  4025e8:	84 83 00 00 	l.lwz r4,0x0(r3)
  4025ec:	84 83 00 00 	l.lwz r4,0x0(r3)
  4025f0:	84 83 00 00 	l.lwz r4,0x0(r3)
  4025f4:	84 83 00 00 	l.lwz r4,0x0(r3)
  4025f8:	84 83 00 00 	l.lwz r4,0x0(r3)
  4025fc:	84 83 00 00 	l.lwz r4,0x0(r3)
  402600:	84 83 00 00 	l.lwz r4,0x0(r3)
  402604:	84 83 00 00 	l.lwz r4,0x0(r3)
  402608:	84 83 00 00 	l.lwz r4,0x0(r3)
  40260c:	84 83 00 00 	l.lwz r4,0x0(r3)
    MEM_WRITE16(0x00e6); MEM_WRITE16(0x5000);
  402610:	d4 02 58 00 	l.sw 0x0(r2),r11
  402614:	84 82 00 00 	l.lwz r4,0x0(r2)
  402618:	d4 02 30 00 	l.sw 0x0(r2),r6
  40261c:	84 82 00 00 	l.lwz r4,0x0(r2)
  402620:	84 83 00 00 	l.lwz r4,0x0(r3)
  402624:	84 83 00 00 	l.lwz r4,0x0(r3)
  402628:	84 83 00 00 	l.lwz r4,0x0(r3)
  40262c:	84 83 00 00 	l.lwz r4,0x0(r3)
  402630:	84 83 00 00 	l.lwz r4,0x0(r3)
  402634:	84 83 00 00 	l.lwz r4,0x0(r3)
  402638:	84 83 00 00 	l.lwz r4,0x0(r3)
  40263c:	84 83 00 00 	l.lwz r4,0x0(r3)
  402640:	84 83 00 00 	l.lwz r4,0x0(r3)
  402644:	84 83 00 00 	l.lwz r4,0x0(r3)
  402648:	84 83 00 00 	l.lwz r4,0x0(r3)
  40264c:	84 83 00 00 	l.lwz r4,0x0(r3)
  402650:	84 83 00 00 	l.lwz r4,0x0(r3)
  402654:	84 83 00 00 	l.lwz r4,0x0(r3)
  402658:	84 83 00 00 	l.lwz r4,0x0(r3)
  40265c:	84 83 00 00 	l.lwz r4,0x0(r3)
  402660:	84 83 00 00 	l.lwz r4,0x0(r3)
  402664:	84 83 00 00 	l.lwz r4,0x0(r3)
  402668:	84 83 00 00 	l.lwz r4,0x0(r3)
  40266c:	84 83 00 00 	l.lwz r4,0x0(r3)
  402670:	84 83 00 00 	l.lwz r4,0x0(r3)
  402674:	84 83 00 00 	l.lwz r4,0x0(r3)
  402678:	84 83 00 00 	l.lwz r4,0x0(r3)
  40267c:	84 83 00 00 	l.lwz r4,0x0(r3)
  402680:	84 83 00 00 	l.lwz r4,0x0(r3)
  402684:	84 83 00 00 	l.lwz r4,0x0(r3)
  402688:	84 83 00 00 	l.lwz r4,0x0(r3)
  40268c:	84 83 00 00 	l.lwz r4,0x0(r3)
  402690:	84 83 00 00 	l.lwz r4,0x0(r3)
  402694:	84 83 00 00 	l.lwz r4,0x0(r3)
  402698:	84 83 00 00 	l.lwz r4,0x0(r3)
  40269c:	84 83 00 00 	l.lwz r4,0x0(r3)
  4026a0:	84 83 00 00 	l.lwz r4,0x0(r3)
  4026a4:	84 83 00 00 	l.lwz r4,0x0(r3)
  4026a8:	84 83 00 00 	l.lwz r4,0x0(r3)
  4026ac:	84 83 00 00 	l.lwz r4,0x0(r3)
  4026b0:	84 83 00 00 	l.lwz r4,0x0(r3)
  4026b4:	84 83 00 00 	l.lwz r4,0x0(r3)
  4026b8:	84 83 00 00 	l.lwz r4,0x0(r3)
  4026bc:	84 83 00 00 	l.lwz r4,0x0(r3)
  4026c0:	84 83 00 00 	l.lwz r4,0x0(r3)
  4026c4:	84 83 00 00 	l.lwz r4,0x0(r3)
  4026c8:	84 83 00 00 	l.lwz r4,0x0(r3)
  4026cc:	84 83 00 00 	l.lwz r4,0x0(r3)
  4026d0:	84 83 00 00 	l.lwz r4,0x0(r3)
  4026d4:	84 83 00 00 	l.lwz r4,0x0(r3)
  4026d8:	84 83 00 00 	l.lwz r4,0x0(r3)
  4026dc:	84 83 00 00 	l.lwz r4,0x0(r3)
  4026e0:	9c 80 00 50 	l.addi r4,r0,0x50
  4026e4:	d4 02 20 00 	l.sw 0x0(r2),r4
  4026e8:	84 82 00 00 	l.lwz r4,0x0(r2)
  4026ec:	d4 02 58 00 	l.sw 0x0(r2),r11
  4026f0:	84 82 00 00 	l.lwz r4,0x0(r2)
  4026f4:	84 83 00 00 	l.lwz r4,0x0(r3)
  4026f8:	84 83 00 00 	l.lwz r4,0x0(r3)
  4026fc:	84 83 00 00 	l.lwz r4,0x0(r3)
  402700:	84 83 00 00 	l.lwz r4,0x0(r3)
  402704:	84 83 00 00 	l.lwz r4,0x0(r3)
  402708:	84 83 00 00 	l.lwz r4,0x0(r3)
  40270c:	84 83 00 00 	l.lwz r4,0x0(r3)
  402710:	84 83 00 00 	l.lwz r4,0x0(r3)
  402714:	84 83 00 00 	l.lwz r4,0x0(r3)
  402718:	84 83 00 00 	l.lwz r4,0x0(r3)
  40271c:	84 83 00 00 	l.lwz r4,0x0(r3)
  402720:	84 83 00 00 	l.lwz r4,0x0(r3)
  402724:	84 83 00 00 	l.lwz r4,0x0(r3)
  402728:	84 83 00 00 	l.lwz r4,0x0(r3)
  40272c:	84 83 00 00 	l.lwz r4,0x0(r3)
  402730:	84 83 00 00 	l.lwz r4,0x0(r3)
  402734:	84 83 00 00 	l.lwz r4,0x0(r3)
  402738:	84 83 00 00 	l.lwz r4,0x0(r3)
  40273c:	84 83 00 00 	l.lwz r4,0x0(r3)
  402740:	84 83 00 00 	l.lwz r4,0x0(r3)
  402744:	84 83 00 00 	l.lwz r4,0x0(r3)
  402748:	84 83 00 00 	l.lwz r4,0x0(r3)
  40274c:	84 83 00 00 	l.lwz r4,0x0(r3)
  402750:	84 83 00 00 	l.lwz r4,0x0(r3)
  402754:	84 83 00 00 	l.lwz r4,0x0(r3)
  402758:	84 83 00 00 	l.lwz r4,0x0(r3)
  40275c:	84 83 00 00 	l.lwz r4,0x0(r3)
  402760:	84 83 00 00 	l.lwz r4,0x0(r3)
  402764:	84 83 00 00 	l.lwz r4,0x0(r3)
  402768:	84 83 00 00 	l.lwz r4,0x0(r3)
  40276c:	84 83 00 00 	l.lwz r4,0x0(r3)
  402770:	84 83 00 00 	l.lwz r4,0x0(r3)
  402774:	84 83 00 00 	l.lwz r4,0x0(r3)
  402778:	84 83 00 00 	l.lwz r4,0x0(r3)
  40277c:	84 83 00 00 	l.lwz r4,0x0(r3)
  402780:	84 83 00 00 	l.lwz r4,0x0(r3)
  402784:	84 83 00 00 	l.lwz r4,0x0(r3)
  402788:	84 83 00 00 	l.lwz r4,0x0(r3)
  40278c:	84 83 00 00 	l.lwz r4,0x0(r3)
  402790:	84 83 00 00 	l.lwz r4,0x0(r3)
  402794:	84 83 00 00 	l.lwz r4,0x0(r3)
  402798:	84 83 00 00 	l.lwz r4,0x0(r3)
  40279c:	84 83 00 00 	l.lwz r4,0x0(r3)
  4027a0:	84 83 00 00 	l.lwz r4,0x0(r3)
  4027a4:	84 83 00 00 	l.lwz r4,0x0(r3)
  4027a8:	84 83 00 00 	l.lwz r4,0x0(r3)
  4027ac:	84 83 00 00 	l.lwz r4,0x0(r3)
  4027b0:	84 83 00 00 	l.lwz r4,0x0(r3)
    MEM_WRITE16(0x0100); MEM_WRITE16(0xa200);
  4027b4:	9c 80 00 01 	l.addi r4,r0,0x1
  4027b8:	d4 02 20 00 	l.sw 0x0(r2),r4
  4027bc:	84 82 00 00 	l.lwz r4,0x0(r2)
  4027c0:	d4 02 58 00 	l.sw 0x0(r2),r11
  4027c4:	84 82 00 00 	l.lwz r4,0x0(r2)
  4027c8:	84 83 00 00 	l.lwz r4,0x0(r3)
  4027cc:	84 83 00 00 	l.lwz r4,0x0(r3)
  4027d0:	84 83 00 00 	l.lwz r4,0x0(r3)
  4027d4:	84 83 00 00 	l.lwz r4,0x0(r3)
  4027d8:	84 83 00 00 	l.lwz r4,0x0(r3)
  4027dc:	84 83 00 00 	l.lwz r4,0x0(r3)
  4027e0:	84 83 00 00 	l.lwz r4,0x0(r3)
  4027e4:	84 83 00 00 	l.lwz r4,0x0(r3)
  4027e8:	84 83 00 00 	l.lwz r4,0x0(r3)
  4027ec:	84 83 00 00 	l.lwz r4,0x0(r3)
  4027f0:	84 83 00 00 	l.lwz r4,0x0(r3)
  4027f4:	84 83 00 00 	l.lwz r4,0x0(r3)
  4027f8:	84 83 00 00 	l.lwz r4,0x0(r3)
  4027fc:	84 83 00 00 	l.lwz r4,0x0(r3)
  402800:	84 83 00 00 	l.lwz r4,0x0(r3)
  402804:	84 83 00 00 	l.lwz r4,0x0(r3)
  402808:	84 83 00 00 	l.lwz r4,0x0(r3)
  40280c:	84 83 00 00 	l.lwz r4,0x0(r3)
  402810:	84 83 00 00 	l.lwz r4,0x0(r3)
  402814:	84 83 00 00 	l.lwz r4,0x0(r3)
  402818:	84 83 00 00 	l.lwz r4,0x0(r3)
  40281c:	84 83 00 00 	l.lwz r4,0x0(r3)
  402820:	84 83 00 00 	l.lwz r4,0x0(r3)
  402824:	84 83 00 00 	l.lwz r4,0x0(r3)
  402828:	84 83 00 00 	l.lwz r4,0x0(r3)
  40282c:	84 83 00 00 	l.lwz r4,0x0(r3)
  402830:	84 83 00 00 	l.lwz r4,0x0(r3)
  402834:	84 83 00 00 	l.lwz r4,0x0(r3)
  402838:	84 83 00 00 	l.lwz r4,0x0(r3)
  40283c:	84 83 00 00 	l.lwz r4,0x0(r3)
  402840:	84 83 00 00 	l.lwz r4,0x0(r3)
  402844:	84 83 00 00 	l.lwz r4,0x0(r3)
  402848:	84 83 00 00 	l.lwz r4,0x0(r3)
  40284c:	84 83 00 00 	l.lwz r4,0x0(r3)
  402850:	84 83 00 00 	l.lwz r4,0x0(r3)
  402854:	84 83 00 00 	l.lwz r4,0x0(r3)
  402858:	84 83 00 00 	l.lwz r4,0x0(r3)
  40285c:	84 83 00 00 	l.lwz r4,0x0(r3)
  402860:	84 83 00 00 	l.lwz r4,0x0(r3)
  402864:	84 83 00 00 	l.lwz r4,0x0(r3)
  402868:	84 83 00 00 	l.lwz r4,0x0(r3)
  40286c:	84 83 00 00 	l.lwz r4,0x0(r3)
  402870:	84 83 00 00 	l.lwz r4,0x0(r3)
  402874:	84 83 00 00 	l.lwz r4,0x0(r3)
  402878:	84 83 00 00 	l.lwz r4,0x0(r3)
  40287c:	84 83 00 00 	l.lwz r4,0x0(r3)
  402880:	84 83 00 00 	l.lwz r4,0x0(r3)
  402884:	84 83 00 00 	l.lwz r4,0x0(r3)
  402888:	9c 80 00 a2 	l.addi r4,r0,0xa2
  40288c:	d4 02 20 00 	l.sw 0x0(r2),r4
  402890:	84 82 00 00 	l.lwz r4,0x0(r2)
  402894:	d4 02 58 00 	l.sw 0x0(r2),r11
  402898:	84 82 00 00 	l.lwz r4,0x0(r2)
  40289c:	84 83 00 00 	l.lwz r4,0x0(r3)
  4028a0:	84 83 00 00 	l.lwz r4,0x0(r3)
  4028a4:	84 83 00 00 	l.lwz r4,0x0(r3)
  4028a8:	84 83 00 00 	l.lwz r4,0x0(r3)
  4028ac:	84 83 00 00 	l.lwz r4,0x0(r3)
  4028b0:	84 83 00 00 	l.lwz r4,0x0(r3)
  4028b4:	84 83 00 00 	l.lwz r4,0x0(r3)
  4028b8:	84 83 00 00 	l.lwz r4,0x0(r3)
  4028bc:	84 83 00 00 	l.lwz r4,0x0(r3)
  4028c0:	84 83 00 00 	l.lwz r4,0x0(r3)
  4028c4:	84 83 00 00 	l.lwz r4,0x0(r3)
  4028c8:	84 83 00 00 	l.lwz r4,0x0(r3)
  4028cc:	84 83 00 00 	l.lwz r4,0x0(r3)
  4028d0:	84 83 00 00 	l.lwz r4,0x0(r3)
  4028d4:	84 83 00 00 	l.lwz r4,0x0(r3)
  4028d8:	84 83 00 00 	l.lwz r4,0x0(r3)
  4028dc:	84 83 00 00 	l.lwz r4,0x0(r3)
  4028e0:	84 83 00 00 	l.lwz r4,0x0(r3)
  4028e4:	84 83 00 00 	l.lwz r4,0x0(r3)
  4028e8:	84 83 00 00 	l.lwz r4,0x0(r3)
  4028ec:	84 83 00 00 	l.lwz r4,0x0(r3)
  4028f0:	84 83 00 00 	l.lwz r4,0x0(r3)
  4028f4:	84 83 00 00 	l.lwz r4,0x0(r3)
  4028f8:	84 83 00 00 	l.lwz r4,0x0(r3)
  4028fc:	84 83 00 00 	l.lwz r4,0x0(r3)
  402900:	84 83 00 00 	l.lwz r4,0x0(r3)
  402904:	84 83 00 00 	l.lwz r4,0x0(r3)
  402908:	84 83 00 00 	l.lwz r4,0x0(r3)
  40290c:	84 83 00 00 	l.lwz r4,0x0(r3)
  402910:	84 83 00 00 	l.lwz r4,0x0(r3)
  402914:	84 83 00 00 	l.lwz r4,0x0(r3)
  402918:	84 83 00 00 	l.lwz r4,0x0(r3)
  40291c:	84 83 00 00 	l.lwz r4,0x0(r3)
  402920:	84 83 00 00 	l.lwz r4,0x0(r3)
  402924:	84 83 00 00 	l.lwz r4,0x0(r3)
  402928:	84 83 00 00 	l.lwz r4,0x0(r3)
  40292c:	84 83 00 00 	l.lwz r4,0x0(r3)
  402930:	84 83 00 00 	l.lwz r4,0x0(r3)
  402934:	84 83 00 00 	l.lwz r4,0x0(r3)
  402938:	84 83 00 00 	l.lwz r4,0x0(r3)
  40293c:	84 83 00 00 	l.lwz r4,0x0(r3)
  402940:	84 83 00 00 	l.lwz r4,0x0(r3)
  402944:	84 83 00 00 	l.lwz r4,0x0(r3)
  402948:	84 83 00 00 	l.lwz r4,0x0(r3)
  40294c:	84 83 00 00 	l.lwz r4,0x0(r3)
  402950:	84 83 00 00 	l.lwz r4,0x0(r3)
  402954:	84 83 00 00 	l.lwz r4,0x0(r3)
  402958:	84 83 00 00 	l.lwz r4,0x0(r3)
    MEM_WRITE16(0xffff); MEM_WRITE16(0xfffe);
  40295c:	9c 80 00 ff 	l.addi r4,r0,0xff
  402960:	d4 02 20 00 	l.sw 0x0(r2),r4
  402964:	84 c2 00 00 	l.lwz r6,0x0(r2)
  402968:	d4 02 20 00 	l.sw 0x0(r2),r4
  40296c:	84 c2 00 00 	l.lwz r6,0x0(r2)
  402970:	84 c3 00 00 	l.lwz r6,0x0(r3)
  402974:	84 c3 00 00 	l.lwz r6,0x0(r3)
  402978:	84 c3 00 00 	l.lwz r6,0x0(r3)
  40297c:	84 c3 00 00 	l.lwz r6,0x0(r3)
  402980:	84 c3 00 00 	l.lwz r6,0x0(r3)
  402984:	84 c3 00 00 	l.lwz r6,0x0(r3)
  402988:	84 c3 00 00 	l.lwz r6,0x0(r3)
  40298c:	84 c3 00 00 	l.lwz r6,0x0(r3)
  402990:	84 c3 00 00 	l.lwz r6,0x0(r3)
  402994:	84 c3 00 00 	l.lwz r6,0x0(r3)
  402998:	84 c3 00 00 	l.lwz r6,0x0(r3)
  40299c:	84 c3 00 00 	l.lwz r6,0x0(r3)
  4029a0:	84 c3 00 00 	l.lwz r6,0x0(r3)
  4029a4:	84 c3 00 00 	l.lwz r6,0x0(r3)
  4029a8:	84 c3 00 00 	l.lwz r6,0x0(r3)
  4029ac:	84 c3 00 00 	l.lwz r6,0x0(r3)
  4029b0:	84 c3 00 00 	l.lwz r6,0x0(r3)
  4029b4:	84 c3 00 00 	l.lwz r6,0x0(r3)
  4029b8:	84 c3 00 00 	l.lwz r6,0x0(r3)
  4029bc:	84 c3 00 00 	l.lwz r6,0x0(r3)
  4029c0:	84 c3 00 00 	l.lwz r6,0x0(r3)
  4029c4:	84 c3 00 00 	l.lwz r6,0x0(r3)
  4029c8:	84 c3 00 00 	l.lwz r6,0x0(r3)
  4029cc:	84 c3 00 00 	l.lwz r6,0x0(r3)
  4029d0:	84 c3 00 00 	l.lwz r6,0x0(r3)
  4029d4:	84 c3 00 00 	l.lwz r6,0x0(r3)
  4029d8:	84 c3 00 00 	l.lwz r6,0x0(r3)
  4029dc:	84 c3 00 00 	l.lwz r6,0x0(r3)
  4029e0:	84 c3 00 00 	l.lwz r6,0x0(r3)
  4029e4:	84 c3 00 00 	l.lwz r6,0x0(r3)
  4029e8:	84 c3 00 00 	l.lwz r6,0x0(r3)
  4029ec:	84 c3 00 00 	l.lwz r6,0x0(r3)
  4029f0:	84 c3 00 00 	l.lwz r6,0x0(r3)
  4029f4:	84 c3 00 00 	l.lwz r6,0x0(r3)
  4029f8:	84 c3 00 00 	l.lwz r6,0x0(r3)
  4029fc:	84 c3 00 00 	l.lwz r6,0x0(r3)
  402a00:	84 c3 00 00 	l.lwz r6,0x0(r3)
  402a04:	84 c3 00 00 	l.lwz r6,0x0(r3)
  402a08:	84 c3 00 00 	l.lwz r6,0x0(r3)
  402a0c:	84 c3 00 00 	l.lwz r6,0x0(r3)
  402a10:	84 c3 00 00 	l.lwz r6,0x0(r3)
  402a14:	84 c3 00 00 	l.lwz r6,0x0(r3)
  402a18:	84 c3 00 00 	l.lwz r6,0x0(r3)
  402a1c:	84 c3 00 00 	l.lwz r6,0x0(r3)
  402a20:	84 c3 00 00 	l.lwz r6,0x0(r3)
  402a24:	84 c3 00 00 	l.lwz r6,0x0(r3)
  402a28:	84 c3 00 00 	l.lwz r6,0x0(r3)
  402a2c:	84 c3 00 00 	l.lwz r6,0x0(r3)
  402a30:	d4 02 20 00 	l.sw 0x0(r2),r4
  402a34:	84 82 00 00 	l.lwz r4,0x0(r2)
  402a38:	9c 80 00 fe 	l.addi r4,r0,0xfe
  402a3c:	d4 02 20 00 	l.sw 0x0(r2),r4
  402a40:	84 42 00 00 	l.lwz r2,0x0(r2)
  402a44:	84 43 00 00 	l.lwz r2,0x0(r3)
  402a48:	84 43 00 00 	l.lwz r2,0x0(r3)
  402a4c:	84 43 00 00 	l.lwz r2,0x0(r3)
  402a50:	84 43 00 00 	l.lwz r2,0x0(r3)
  402a54:	84 43 00 00 	l.lwz r2,0x0(r3)
  402a58:	84 43 00 00 	l.lwz r2,0x0(r3)
  402a5c:	84 43 00 00 	l.lwz r2,0x0(r3)
  402a60:	84 43 00 00 	l.lwz r2,0x0(r3)
  402a64:	84 43 00 00 	l.lwz r2,0x0(r3)
  402a68:	84 43 00 00 	l.lwz r2,0x0(r3)
  402a6c:	84 43 00 00 	l.lwz r2,0x0(r3)
  402a70:	84 43 00 00 	l.lwz r2,0x0(r3)
  402a74:	84 43 00 00 	l.lwz r2,0x0(r3)
  402a78:	84 43 00 00 	l.lwz r2,0x0(r3)
  402a7c:	84 43 00 00 	l.lwz r2,0x0(r3)
  402a80:	84 43 00 00 	l.lwz r2,0x0(r3)
  402a84:	84 43 00 00 	l.lwz r2,0x0(r3)
  402a88:	84 43 00 00 	l.lwz r2,0x0(r3)
  402a8c:	84 43 00 00 	l.lwz r2,0x0(r3)
  402a90:	84 43 00 00 	l.lwz r2,0x0(r3)
  402a94:	84 43 00 00 	l.lwz r2,0x0(r3)
  402a98:	84 43 00 00 	l.lwz r2,0x0(r3)
  402a9c:	84 43 00 00 	l.lwz r2,0x0(r3)
  402aa0:	84 43 00 00 	l.lwz r2,0x0(r3)
  402aa4:	84 43 00 00 	l.lwz r2,0x0(r3)
  402aa8:	84 43 00 00 	l.lwz r2,0x0(r3)
  402aac:	84 43 00 00 	l.lwz r2,0x0(r3)
  402ab0:	84 43 00 00 	l.lwz r2,0x0(r3)
  402ab4:	84 43 00 00 	l.lwz r2,0x0(r3)
  402ab8:	84 43 00 00 	l.lwz r2,0x0(r3)
  402abc:	84 43 00 00 	l.lwz r2,0x0(r3)
  402ac0:	84 43 00 00 	l.lwz r2,0x0(r3)
  402ac4:	84 43 00 00 	l.lwz r2,0x0(r3)
  402ac8:	84 43 00 00 	l.lwz r2,0x0(r3)
  402acc:	84 43 00 00 	l.lwz r2,0x0(r3)
  402ad0:	84 43 00 00 	l.lwz r2,0x0(r3)
  402ad4:	84 43 00 00 	l.lwz r2,0x0(r3)
  402ad8:	84 43 00 00 	l.lwz r2,0x0(r3)
  402adc:	84 43 00 00 	l.lwz r2,0x0(r3)
  402ae0:	84 43 00 00 	l.lwz r2,0x0(r3)
  402ae4:	84 43 00 00 	l.lwz r2,0x0(r3)
  402ae8:	84 43 00 00 	l.lwz r2,0x0(r3)
  402aec:	84 43 00 00 	l.lwz r2,0x0(r3)
  402af0:	84 43 00 00 	l.lwz r2,0x0(r3)
  402af4:	84 43 00 00 	l.lwz r2,0x0(r3)
  402af8:	84 43 00 00 	l.lwz r2,0x0(r3)
  402afc:	84 43 00 00 	l.lwz r2,0x0(r3)
  402b00:	84 43 00 00 	l.lwz r2,0x0(r3)
    MEM_UPLOAD_FINI();
  402b04:	9c 40 00 40 	l.addi r2,r0,0x40
  402b08:	d4 05 10 00 	l.sw 0x0(r5),r2
  402b0c:	84 43 00 00 	l.lwz r2,0x0(r3)
  402b10:	84 43 00 00 	l.lwz r2,0x0(r3)
  402b14:	84 43 00 00 	l.lwz r2,0x0(r3)
  402b18:	84 43 00 00 	l.lwz r2,0x0(r3)
  402b1c:	84 43 00 00 	l.lwz r2,0x0(r3)
  402b20:	84 43 00 00 	l.lwz r2,0x0(r3)
  402b24:	84 43 00 00 	l.lwz r2,0x0(r3)
  402b28:	84 43 00 00 	l.lwz r2,0x0(r3)
  402b2c:	84 43 00 00 	l.lwz r2,0x0(r3)
  402b30:	84 43 00 00 	l.lwz r2,0x0(r3)
  402b34:	84 43 00 00 	l.lwz r2,0x0(r3)
  402b38:	84 43 00 00 	l.lwz r2,0x0(r3)
  402b3c:	84 43 00 00 	l.lwz r2,0x0(r3)
  402b40:	84 43 00 00 	l.lwz r2,0x0(r3)
  402b44:	84 43 00 00 	l.lwz r2,0x0(r3)
  402b48:	84 43 00 00 	l.lwz r2,0x0(r3)
  402b4c:	84 43 00 00 	l.lwz r2,0x0(r3)
  402b50:	84 43 00 00 	l.lwz r2,0x0(r3)
  402b54:	84 43 00 00 	l.lwz r2,0x0(r3)
  402b58:	84 43 00 00 	l.lwz r2,0x0(r3)
  402b5c:	84 43 00 00 	l.lwz r2,0x0(r3)
  402b60:	84 43 00 00 	l.lwz r2,0x0(r3)
  402b64:	84 43 00 00 	l.lwz r2,0x0(r3)
  402b68:	84 43 00 00 	l.lwz r2,0x0(r3)
  402b6c:	84 43 00 00 	l.lwz r2,0x0(r3)
  402b70:	84 43 00 00 	l.lwz r2,0x0(r3)
  402b74:	84 43 00 00 	l.lwz r2,0x0(r3)
  402b78:	84 43 00 00 	l.lwz r2,0x0(r3)
  402b7c:	84 43 00 00 	l.lwz r2,0x0(r3)
  402b80:	84 43 00 00 	l.lwz r2,0x0(r3)
  402b84:	84 43 00 00 	l.lwz r2,0x0(r3)
  402b88:	84 43 00 00 	l.lwz r2,0x0(r3)
  402b8c:	84 43 00 00 	l.lwz r2,0x0(r3)
  402b90:	84 43 00 00 	l.lwz r2,0x0(r3)
  402b94:	84 43 00 00 	l.lwz r2,0x0(r3)
  402b98:	84 43 00 00 	l.lwz r2,0x0(r3)
  402b9c:	84 43 00 00 	l.lwz r2,0x0(r3)
  402ba0:	84 43 00 00 	l.lwz r2,0x0(r3)
  402ba4:	84 43 00 00 	l.lwz r2,0x0(r3)
  402ba8:	84 43 00 00 	l.lwz r2,0x0(r3)
  402bac:	84 43 00 00 	l.lwz r2,0x0(r3)
  402bb0:	84 43 00 00 	l.lwz r2,0x0(r3)
  402bb4:	84 43 00 00 	l.lwz r2,0x0(r3)
  402bb8:	84 43 00 00 	l.lwz r2,0x0(r3)
  402bbc:	84 43 00 00 	l.lwz r2,0x0(r3)
  402bc0:	84 43 00 00 	l.lwz r2,0x0(r3)
  402bc4:	84 43 00 00 	l.lwz r2,0x0(r3)
  402bc8:	84 43 00 00 	l.lwz r2,0x0(r3)
  }
}
  402bcc:	9c 21 03 5c 	l.addi r1,r1,0x35c
  402bd0:	85 21 ff fc 	l.lwz r9,0xfffffffc(r1)
  402bd4:	84 41 ff d8 	l.lwz r2,0xffffffd8(r1)
  402bd8:	85 c1 ff dc 	l.lwz r14,0xffffffdc(r1)
  402bdc:	86 01 ff e0 	l.lwz r16,0xffffffe0(r1)
  402be0:	86 41 ff e4 	l.lwz r18,0xffffffe4(r1)
  402be4:	86 81 ff e8 	l.lwz r20,0xffffffe8(r1)
  402be8:	86 c1 ff ec 	l.lwz r22,0xffffffec(r1)
  402bec:	87 01 ff f0 	l.lwz r24,0xfffffff0(r1)
  402bf0:	87 41 ff f4 	l.lwz r26,0xfffffff4(r1)
  402bf4:	44 00 48 00 	l.jr r9
  402bf8:	87 81 ff f8 	l.lwz r28,0xfffffff8(r1)

00402bfc <SwapEndianL>:
	unsigned char c[4];
	c[0] = (unsigned char)(l & 0xff);
	c[1] = (unsigned char)((l >> 8) & 0xff);
	c[2] = (unsigned char)((l >> 16) & 0xff);
	c[3] = (unsigned char)((l >> 24) & 0xff);
	return((c[0]<<24)+(c[1]<<16)+(c[2]<<8)+c[3]);
  402bfc:	b8 83 00 18 	l.slli r4,r3,0x18
  402c00:	b9 63 00 58 	l.srli r11,r3,0x18
extern unsigned long GetTimer(unsigned long);
extern void ErrorMessage(const char *message, unsigned char code);


unsigned long SwapEndianL(unsigned long l)
{
  402c04:	d7 e1 17 fc 	l.sw 0xfffffffc(r1),r2
	unsigned char c[4];
	c[0] = (unsigned char)(l & 0xff);
	c[1] = (unsigned char)((l >> 8) & 0xff);
	c[2] = (unsigned char)((l >> 16) & 0xff);
	c[3] = (unsigned char)((l >> 24) & 0xff);
	return((c[0]<<24)+(c[1]<<16)+(c[2]<<8)+c[3]);
  402c08:	18 40 00 ff 	l.movhi r2,0xff
  402c0c:	e1 6b 20 00 	l.add r11,r11,r4
  402c10:	b8 83 00 08 	l.slli r4,r3,0x8
  402c14:	b8 63 00 48 	l.srli r3,r3,0x8
extern unsigned long GetTimer(unsigned long);
extern void ErrorMessage(const char *message, unsigned char code);


unsigned long SwapEndianL(unsigned long l)
{
  402c18:	9c 21 ff fc 	l.addi r1,r1,0xfffffffc
	unsigned char c[4];
	c[0] = (unsigned char)(l & 0xff);
	c[1] = (unsigned char)((l >> 8) & 0xff);
	c[2] = (unsigned char)((l >> 16) & 0xff);
	c[3] = (unsigned char)((l >> 24) & 0xff);
	return((c[0]<<24)+(c[1]<<16)+(c[2]<<8)+c[3]);
  402c1c:	e0 84 10 03 	l.and r4,r4,r2
  402c20:	a4 63 ff 00 	l.andi r3,r3,0xff00
  402c24:	e1 6b 20 00 	l.add r11,r11,r4

  DEBUG_FUNC_OUT(DEBUG_F_FAT | DEBUG_L3);
}
  402c28:	9c 21 00 04 	l.addi r1,r1,0x4
  402c2c:	e1 6b 18 00 	l.add r11,r11,r3
  402c30:	44 00 48 00 	l.jr r9
  402c34:	84 41 ff fc 	l.lwz r2,0xfffffffc(r1)

00402c38 <SwapPartitionBytes>:


void SwapPartitionBytes(int i)
{
  402c38:	d7 e1 17 f4 	l.sw 0xfffffff4(r1),r2
  DEBUG_FUNC_IN(DEBUG_F_FAT | DEBUG_L1);

	// We don't bother to byteswap the CHS geometry fields since we don't use them.
	partitions[i].startlba=SwapEndianL(partitions[i].startlba);
  402c3c:	b8 43 00 04 	l.slli r2,r3,0x4
  402c40:	18 60 00 41 	l.movhi r3,0x41
  DEBUG_FUNC_OUT(DEBUG_F_FAT | DEBUG_L3);
}


void SwapPartitionBytes(int i)
{
  402c44:	d7 e1 4f fc 	l.sw 0xfffffffc(r1),r9
  DEBUG_FUNC_IN(DEBUG_F_FAT | DEBUG_L1);

	// We don't bother to byteswap the CHS geometry fields since we don't use them.
	partitions[i].startlba=SwapEndianL(partitions[i].startlba);
  402c48:	a8 63 a4 98 	l.ori r3,r3,0xa498
  DEBUG_FUNC_OUT(DEBUG_F_FAT | DEBUG_L3);
}


void SwapPartitionBytes(int i)
{
  402c4c:	d7 e1 77 f8 	l.sw 0xfffffff8(r1),r14
  DEBUG_FUNC_IN(DEBUG_F_FAT | DEBUG_L1);

	// We don't bother to byteswap the CHS geometry fields since we don't use them.
	partitions[i].startlba=SwapEndianL(partitions[i].startlba);
  402c50:	e0 42 18 00 	l.add r2,r2,r3
  DEBUG_FUNC_OUT(DEBUG_F_FAT | DEBUG_L3);
}


void SwapPartitionBytes(int i)
{
  402c54:	9c 21 ff f4 	l.addi r1,r1,0xfffffff4
  DEBUG_FUNC_IN(DEBUG_F_FAT | DEBUG_L1);

	// We don't bother to byteswap the CHS geometry fields since we don't use them.
	partitions[i].startlba=SwapEndianL(partitions[i].startlba);
  402c58:	9d c2 00 08 	l.addi r14,r2,0x8
	partitions[i].sectors=SwapEndianL(partitions[i].sectors);
  402c5c:	9c 42 00 0c 	l.addi r2,r2,0xc
void SwapPartitionBytes(int i)
{
  DEBUG_FUNC_IN(DEBUG_F_FAT | DEBUG_L1);

	// We don't bother to byteswap the CHS geometry fields since we don't use them.
	partitions[i].startlba=SwapEndianL(partitions[i].startlba);
  402c60:	07 ff ff e7 	l.jal 402bfc <SwapEndianL>
  402c64:	84 6e 00 00 	l.lwz r3,0x0(r14)
  402c68:	d4 0e 58 00 	l.sw 0x0(r14),r11
	partitions[i].sectors=SwapEndianL(partitions[i].sectors);
  402c6c:	07 ff ff e4 	l.jal 402bfc <SwapEndianL>
  402c70:	84 62 00 00 	l.lwz r3,0x0(r2)
  402c74:	d4 02 58 00 	l.sw 0x0(r2),r11

  DEBUG_FUNC_OUT(DEBUG_F_FAT | DEBUG_L1);
}
  402c78:	9c 21 00 0c 	l.addi r1,r1,0xc
  402c7c:	85 21 ff fc 	l.lwz r9,0xfffffffc(r1)
  402c80:	84 41 ff f4 	l.lwz r2,0xfffffff4(r1)
  402c84:	44 00 48 00 	l.jr r9
  402c88:	85 c1 ff f8 	l.lwz r14,0xfffffff8(r1)

00402c8c <lfn_checksum>:
unsigned char lfn_checksum(unsigned char *pName)
{
  DEBUG_FUNC_IN(DEBUG_F_FAT | DEBUG_L2);

    unsigned char i = 11;
    unsigned char checksum = 0;
  402c8c:	9d 60 00 00 	l.addi r11,r0,0x0

    while (i--)
  402c90:	00 00 00 08 	l.j 402cb0 <lfn_checksum+0x24>
  402c94:	9c 80 00 0b 	l.addi r4,r0,0xb
        checksum = ((checksum & 1) << 7) + (checksum >> 1) + *pName++;
  402c98:	8c c3 00 00 	l.lbz r6,0x0(r3)
  402c9c:	b9 6b 00 41 	l.srli r11,r11,0x1
  402ca0:	9c 63 00 01 	l.addi r3,r3,0x1
  402ca4:	e1 6b 30 00 	l.add r11,r11,r6
  402ca8:	e1 6b 28 00 	l.add r11,r11,r5
  402cac:	a5 6b 00 ff 	l.andi r11,r11,0xff
  DEBUG_FUNC_IN(DEBUG_F_FAT | DEBUG_L2);

    unsigned char i = 11;
    unsigned char checksum = 0;

    while (i--)
  402cb0:	9c 84 ff ff 	l.addi r4,r4,0xffffffff
  402cb4:	a4 84 00 ff 	l.andi r4,r4,0xff
  402cb8:	bc 24 00 ff 	l.sfnei r4,0xff
  402cbc:	13 ff ff f7 	l.bf 402c98 <lfn_checksum+0xc>
  402cc0:	b8 ab 00 07 	l.slli r5,r11,0x7
        checksum = ((checksum & 1) << 7) + (checksum >> 1) + *pName++;

    return checksum;

  DEBUG_FUNC_OUT(DEBUG_F_FAT | DEBUG_L2);
}
  402cc4:	44 00 48 00 	l.jr r9
  402cc8:	15 00 00 00 	l.nop 0x0

00402ccc <CompareDirEntries>:
  DEBUG_FUNC_OUT(DEBUG_F_FAT | DEBUG_L3);
}


int CompareDirEntries(DIRENTRY *pDirEntry1, char *pLFN1, DIRENTRY *pDirEntry2, char *pLFN2)
{
  402ccc:	d7 e1 4f fc 	l.sw 0xfffffffc(r1),r9
  402cd0:	d7 e1 17 dc 	l.sw 0xffffffdc(r1),r2
  402cd4:	d7 e1 77 e0 	l.sw 0xffffffe0(r1),r14
  402cd8:	d7 e1 87 e4 	l.sw 0xffffffe4(r1),r16
  402cdc:	d7 e1 97 e8 	l.sw 0xffffffe8(r1),r18
  402ce0:	d7 e1 a7 ec 	l.sw 0xffffffec(r1),r20
  402ce4:	d7 e1 b7 f0 	l.sw 0xfffffff0(r1),r22
  402ce8:	d7 e1 c7 f4 	l.sw 0xfffffff4(r1),r24
  402cec:	d7 e1 d7 f8 	l.sw 0xfffffff8(r1),r26
  402cf0:	9c 21 ff dc 	l.addi r1,r1,0xffffffdc

    const char *pStr1, *pStr2;
    int len;
    int rc;

    if ((pDirEntry1->Attributes & ATTR_DIRECTORY) && !(pDirEntry2->Attributes & ATTR_DIRECTORY)) // directories first
  402cf4:	8c 43 00 0b 	l.lbz r2,0xb(r3)
  402cf8:	a4 42 00 10 	l.andi r2,r2,0x10
  402cfc:	bc 02 00 00 	l.sfeqi r2,0x0
  402d00:	10 00 00 08 	l.bf 402d20 <CompareDirEntries+0x54>
  402d04:	8c 45 00 0b 	l.lbz r2,0xb(r5)
  402d08:	a4 42 00 10 	l.andi r2,r2,0x10
  402d0c:	bc 02 00 00 	l.sfeqi r2,0x0
  402d10:	0c 00 00 08 	l.bnf 402d30 <CompareDirEntries+0x64>
  402d14:	9d 60 ff ff 	l.addi r11,r0,0xffffffff
        }
    }
    return(rc);

  DEBUG_FUNC_OUT(DEBUG_F_FAT | DEBUG_L2);
}
  402d18:	00 00 00 38 	l.j 402df8 <CompareDirEntries+0x12c>
  402d1c:	9c 21 00 24 	l.addi r1,r1,0x24
    int rc;

    if ((pDirEntry1->Attributes & ATTR_DIRECTORY) && !(pDirEntry2->Attributes & ATTR_DIRECTORY)) // directories first
       return -1;

    if (!(pDirEntry1->Attributes & ATTR_DIRECTORY) && (pDirEntry2->Attributes & ATTR_DIRECTORY)) // directories first
  402d20:	a4 42 00 10 	l.andi r2,r2,0x10
  402d24:	bc 22 00 00 	l.sfnei r2,0x0
  402d28:	10 00 00 33 	l.bf 402df4 <CompareDirEntries+0x128>
  402d2c:	9d 60 00 01 	l.addi r11,r0,0x1
       return 1;

    len = 260;
    if (*pLFN1)
  402d30:	92 44 00 00 	l.lbs r18,0x0(r4)
  402d34:	bc 32 00 00 	l.sfnei r18,0x0
  402d38:	10 00 00 04 	l.bf 402d48 <CompareDirEntries+0x7c>
  402d3c:	aa 83 00 00 	l.ori r20,r3,0x0
       pStr1 = pLFN1;
    else
    {
        pStr1 = (const char*)pDirEntry1->Name;
        len = 11;
  402d40:	00 00 00 04 	l.j 402d50 <CompareDirEntries+0x84>
  402d44:	9e 00 00 0b 	l.addi r16,r0,0xb

    if (!(pDirEntry1->Attributes & ATTR_DIRECTORY) && (pDirEntry2->Attributes & ATTR_DIRECTORY)) // directories first
       return 1;

    len = 260;
    if (*pLFN1)
  402d48:	aa 84 00 00 	l.ori r20,r4,0x0
       return -1;

    if (!(pDirEntry1->Attributes & ATTR_DIRECTORY) && (pDirEntry2->Attributes & ATTR_DIRECTORY)) // directories first
       return 1;

    len = 260;
  402d4c:	9e 00 01 04 	l.addi r16,r0,0x104
    {
        pStr1 = (const char*)pDirEntry1->Name;
        len = 11;
    }

    if (*pLFN2)
  402d50:	91 c6 00 00 	l.lbs r14,0x0(r6)
  402d54:	bc 2e 00 00 	l.sfnei r14,0x0
  402d58:	10 00 00 04 	l.bf 402d68 <CompareDirEntries+0x9c>
  402d5c:	aa c6 00 00 	l.ori r22,r6,0x0
       pStr2 = pLFN2;
    else
    {
        pStr2 = (const char*)pDirEntry2->Name;
  402d60:	aa c5 00 00 	l.ori r22,r5,0x0
        len = 11;
  402d64:	9e 00 00 0b 	l.addi r16,r0,0xb
    }

    rc = _strnicmp(pStr1, pStr2, len);
  402d68:	9c 40 00 00 	l.addi r2,r0,0x0

  DEBUG_FUNC_OUT(DEBUG_F_FAT | DEBUG_L3);
}


int CompareDirEntries(DIRENTRY *pDirEntry1, char *pLFN1, DIRENTRY *pDirEntry2, char *pLFN2)
  402d6c:	e0 74 10 00 	l.add r3,r20,r2
    char c1, c2;
    int v;

    do
    {
        c1 = *s1++;
  402d70:	93 03 00 00 	l.lbs r24,0x0(r3)
        c2 = *s2++;
        v = (unsigned int)tolower(c1) - (unsigned int)tolower(c2);
  402d74:	07 ff f5 4f 	l.jal 4002b0 <tolower>
  402d78:	a8 78 00 00 	l.ori r3,r24,0x0

  DEBUG_FUNC_OUT(DEBUG_F_FAT | DEBUG_L3);
}


int CompareDirEntries(DIRENTRY *pDirEntry1, char *pLFN1, DIRENTRY *pDirEntry2, char *pLFN2)
  402d7c:	e0 76 10 00 	l.add r3,r22,r2

    do
    {
        c1 = *s1++;
        c2 = *s2++;
        v = (unsigned int)tolower(c1) - (unsigned int)tolower(c2);
  402d80:	ab 4b 00 00 	l.ori r26,r11,0x0
  402d84:	07 ff f5 4b 	l.jal 4002b0 <tolower>
  402d88:	90 63 00 00 	l.lbs r3,0x0(r3)
  402d8c:	e1 7a 58 02 	l.sub r11,r26,r11
    }
    while (v == 0 && c1 != '\0' && --n > 0);
  402d90:	e0 60 58 02 	l.sub r3,r0,r11
  402d94:	e0 63 58 04 	l.or r3,r3,r11
  402d98:	bd 83 00 00 	l.sfltsi r3,0x0
  402d9c:	10 00 00 0a 	l.bf 402dc4 <CompareDirEntries+0xf8>
  402da0:	a7 18 00 ff 	l.andi r24,r24,0xff
  402da4:	bc 18 00 00 	l.sfeqi r24,0x0
  402da8:	10 00 00 07 	l.bf 402dc4 <CompareDirEntries+0xf8>
  402dac:	9c 42 00 01 	l.addi r2,r2,0x1
  402db0:	e4 30 10 00 	l.sfne r16,r2
  402db4:	13 ff ff ef 	l.bf 402d70 <CompareDirEntries+0xa4>
  402db8:	e0 74 10 00 	l.add r3,r20,r2

    rc = _strnicmp(pStr1, pStr2, len);

    if (rc == 0) // it might happen that both strings are equal when one is a long name and other not
    {
        if (*pLFN1)
  402dbc:	00 00 00 05 	l.j 402dd0 <CompareDirEntries+0x104>
  402dc0:	bc 12 00 00 	l.sfeqi r18,0x0
        len = 11;
    }

    rc = _strnicmp(pStr1, pStr2, len);

    if (rc == 0) // it might happen that both strings are equal when one is a long name and other not
  402dc4:	bc 2b 00 00 	l.sfnei r11,0x0
  402dc8:	10 00 00 0b 	l.bf 402df4 <CompareDirEntries+0x128>
  402dcc:	bc 12 00 00 	l.sfeqi r18,0x0
    {
        if (*pLFN1)
  402dd0:	10 00 00 06 	l.bf 402de8 <CompareDirEntries+0x11c>
  402dd4:	bc 2e 00 00 	l.sfnei r14,0x0
    const char *pStr1, *pStr2;
    int len;
    int rc;

    if ((pDirEntry1->Attributes & ATTR_DIRECTORY) && !(pDirEntry2->Attributes & ATTR_DIRECTORY)) // directories first
       return -1;
  402dd8:	a5 6e 00 ff 	l.andi r11,r14,0xff
  402ddc:	9d 6b ff ff 	l.addi r11,r11,0xffffffff
  402de0:	00 00 00 05 	l.j 402df4 <CompareDirEntries+0x128>
  402de4:	b9 6b 00 5f 	l.srli r11,r11,0x1f
            if (!*pLFN2) // first string long, second short
                rc = 1;
        }
        else
        {
            if (*pLFN2) // first string short, second long
  402de8:	10 00 00 03 	l.bf 402df4 <CompareDirEntries+0x128>
  402dec:	9d 60 ff ff 	l.addi r11,r0,0xffffffff
  402df0:	a9 6e 00 00 	l.ori r11,r14,0x0
        }
    }
    return(rc);

  DEBUG_FUNC_OUT(DEBUG_F_FAT | DEBUG_L2);
}
  402df4:	9c 21 00 24 	l.addi r1,r1,0x24
  402df8:	85 21 ff fc 	l.lwz r9,0xfffffffc(r1)
  402dfc:	84 41 ff dc 	l.lwz r2,0xffffffdc(r1)
  402e00:	85 c1 ff e0 	l.lwz r14,0xffffffe0(r1)
  402e04:	86 01 ff e4 	l.lwz r16,0xffffffe4(r1)
  402e08:	86 41 ff e8 	l.lwz r18,0xffffffe8(r1)
  402e0c:	86 81 ff ec 	l.lwz r20,0xffffffec(r1)
  402e10:	86 c1 ff f0 	l.lwz r22,0xfffffff0(r1)
  402e14:	87 01 ff f4 	l.lwz r24,0xfffffff4(r1)
  402e18:	44 00 48 00 	l.jr r9
  402e1c:	87 41 ff f8 	l.lwz r26,0xfffffff8(r1)

00402e20 <ChangeDirectory>:

void ChangeDirectory(unsigned long iStartCluster)
{
  DEBUG_FUNC_IN(DEBUG_F_FAT | DEBUG_L1);

    iPreviousDirectory = iCurrentDirectory;
  402e20:	18 80 00 41 	l.movhi r4,0x41
  402e24:	18 a0 00 41 	l.movhi r5,0x41
  402e28:	a8 84 a3 54 	l.ori r4,r4,0xa354
  402e2c:	a8 a5 a3 58 	l.ori r5,r5,0xa358
  402e30:	84 c4 00 00 	l.lwz r6,0x0(r4)
    iCurrentDirectory = iStartCluster;
  402e34:	d4 04 18 00 	l.sw 0x0(r4),r3

  DEBUG_FUNC_OUT(DEBUG_F_FAT | DEBUG_L1);
}
  402e38:	44 00 48 00 	l.jr r9
  402e3c:	d4 05 30 00 	l.sw 0x0(r5),r6

00402e40 <GetFPGAStatus>:
{
  DEBUG_FUNC_IN(DEBUG_F_FPGA | DEBUG_L2);

    unsigned char status;

    EnableFpga();
  402e40:	18 60 00 80 	l.movhi r3,0x80
  402e44:	9c a0 00 22 	l.addi r5,r0,0x22
  402e48:	a8 83 00 20 	l.ori r4,r3,0x20
  DEBUG_FUNC_OUT(DEBUG_F_FPGA | DEBUG_L0);
}


unsigned char GetFPGAStatus(void)
{
  402e4c:	d7 e1 17 fc 	l.sw 0xfffffffc(r1),r2
  DEBUG_FUNC_IN(DEBUG_F_FPGA | DEBUG_L2);

    unsigned char status;

    EnableFpga();
    status = SPI(0);
  402e50:	a8 63 00 24 	l.ori r3,r3,0x24
  402e54:	9c 40 00 00 	l.addi r2,r0,0x0
{
  DEBUG_FUNC_IN(DEBUG_F_FPGA | DEBUG_L2);

    unsigned char status;

    EnableFpga();
  402e58:	d4 04 28 00 	l.sw 0x0(r4),r5
    status = SPI(0);
  402e5c:	d4 03 10 00 	l.sw 0x0(r3),r2
  DEBUG_FUNC_OUT(DEBUG_F_FPGA | DEBUG_L0);
}


unsigned char GetFPGAStatus(void)
{
  402e60:	9c 21 ff fc 	l.addi r1,r1,0xfffffffc
  DEBUG_FUNC_IN(DEBUG_F_FPGA | DEBUG_L2);

    unsigned char status;

    EnableFpga();
    status = SPI(0);
  402e64:	85 63 00 00 	l.lwz r11,0x0(r3)
    SPI(0);
  402e68:	d4 03 10 00 	l.sw 0x0(r3),r2
    DisableFpga();

    return status;

  DEBUG_FUNC_OUT(DEBUG_F_FPGA | DEBUG_L2);
}
  402e6c:	a5 6b 00 ff 	l.andi r11,r11,0xff

    unsigned char status;

    EnableFpga();
    status = SPI(0);
    SPI(0);
  402e70:	84 a3 00 00 	l.lwz r5,0x0(r3)
    SPI(0);
  402e74:	d4 03 10 00 	l.sw 0x0(r3),r2
  402e78:	84 a3 00 00 	l.lwz r5,0x0(r3)
    SPI(0);
  402e7c:	d4 03 10 00 	l.sw 0x0(r3),r2
  402e80:	84 a3 00 00 	l.lwz r5,0x0(r3)
    SPI(0);
  402e84:	d4 03 10 00 	l.sw 0x0(r3),r2
  402e88:	84 a3 00 00 	l.lwz r5,0x0(r3)
    SPI(0);
  402e8c:	d4 03 10 00 	l.sw 0x0(r3),r2
  402e90:	84 63 00 00 	l.lwz r3,0x0(r3)
    DisableFpga();
  402e94:	9c 60 00 20 	l.addi r3,r0,0x20
  402e98:	d4 04 18 00 	l.sw 0x0(r4),r3

    return status;

  DEBUG_FUNC_OUT(DEBUG_F_FPGA | DEBUG_L2);
}
  402e9c:	9c 21 00 04 	l.addi r1,r1,0x4
  402ea0:	44 00 48 00 	l.jr r9
  402ea4:	84 41 ff fc 	l.lwz r2,0xfffffffc(r1)

00402ea8 <WriteTaskFile>:

void WriteTaskFile(unsigned char error, unsigned char sector_count, unsigned char sector_number, unsigned char cylinder_low, unsigned char cylinder_high, unsigned char drive_head)
{
  DEBUG_FUNC_IN(DEBUG_F_HDD | DEBUG_L2);

    EnableFpga();
  402ea8:	19 60 00 80 	l.movhi r11,0x80
  402eac:	9d a0 00 22 	l.addi r13,r0,0x22
  402eb0:	a9 8b 00 20 	l.ori r12,r11,0x20
  DEBUG_FUNC_OUT(DEBUG_F_HDD | DEBUG_L2);
}


void WriteTaskFile(unsigned char error, unsigned char sector_count, unsigned char sector_number, unsigned char cylinder_low, unsigned char cylinder_high, unsigned char drive_head)
{
  402eb4:	d7 e1 17 fc 	l.sw 0xfffffffc(r1),r2
  DEBUG_FUNC_IN(DEBUG_F_HDD | DEBUG_L2);

    EnableFpga();

    SPI(CMD_IDE_REGS_WR); // write task file registers command
  402eb8:	a9 6b 00 24 	l.ori r11,r11,0x24

void WriteTaskFile(unsigned char error, unsigned char sector_count, unsigned char sector_number, unsigned char cylinder_low, unsigned char cylinder_high, unsigned char drive_head)
{
  DEBUG_FUNC_IN(DEBUG_F_HDD | DEBUG_L2);

    EnableFpga();
  402ebc:	d4 0c 68 00 	l.sw 0x0(r12),r13

    SPI(CMD_IDE_REGS_WR); // write task file registers command
  402ec0:	9d a0 00 90 	l.addi r13,r0,0x90
    SPI(0x00);
  402ec4:	9c 40 00 00 	l.addi r2,r0,0x0
{
  DEBUG_FUNC_IN(DEBUG_F_HDD | DEBUG_L2);

    EnableFpga();

    SPI(CMD_IDE_REGS_WR); // write task file registers command
  402ec8:	d4 0b 68 00 	l.sw 0x0(r11),r13
  DEBUG_FUNC_OUT(DEBUG_F_HDD | DEBUG_L2);
}


void WriteTaskFile(unsigned char error, unsigned char sector_count, unsigned char sector_number, unsigned char cylinder_low, unsigned char cylinder_high, unsigned char drive_head)
{
  402ecc:	9c 21 ff fc 	l.addi r1,r1,0xfffffffc
  DEBUG_FUNC_IN(DEBUG_F_HDD | DEBUG_L2);

    EnableFpga();

    SPI(CMD_IDE_REGS_WR); // write task file registers command
  402ed0:	85 ab 00 00 	l.lwz r13,0x0(r11)
    SPI(0x00);
  402ed4:	d4 0b 10 00 	l.sw 0x0(r11),r2
  402ed8:	85 ab 00 00 	l.lwz r13,0x0(r11)
    SPI(0x00); // dummy
  402edc:	d4 0b 10 00 	l.sw 0x0(r11),r2
  402ee0:	85 ab 00 00 	l.lwz r13,0x0(r11)
    SPI(0x00);
  402ee4:	d4 0b 10 00 	l.sw 0x0(r11),r2
  402ee8:	85 ab 00 00 	l.lwz r13,0x0(r11)
    SPI(0x00); // dummy
  402eec:	d4 0b 10 00 	l.sw 0x0(r11),r2
  402ef0:	85 ab 00 00 	l.lwz r13,0x0(r11)
    SPI(0x00);
  402ef4:	d4 0b 10 00 	l.sw 0x0(r11),r2
  402ef8:	85 ab 00 00 	l.lwz r13,0x0(r11)



    SPI(0x00); // dummy
  402efc:	d4 0b 10 00 	l.sw 0x0(r11),r2
  402f00:	85 ab 00 00 	l.lwz r13,0x0(r11)

    SPI(0x00);
  402f04:	d4 0b 10 00 	l.sw 0x0(r11),r2
  402f08:	85 ab 00 00 	l.lwz r13,0x0(r11)
    SPI(0x00);
  402f0c:	d4 0b 10 00 	l.sw 0x0(r11),r2
  402f10:	85 ab 00 00 	l.lwz r13,0x0(r11)
    SPI(error); // error
  402f14:	d4 0b 18 00 	l.sw 0x0(r11),r3
  402f18:	84 6b 00 00 	l.lwz r3,0x0(r11)
    SPI(0x00);
  402f1c:	d4 0b 10 00 	l.sw 0x0(r11),r2
  402f20:	84 6b 00 00 	l.lwz r3,0x0(r11)
    SPI(sector_count); // sector count
  402f24:	d4 0b 20 00 	l.sw 0x0(r11),r4
  402f28:	84 6b 00 00 	l.lwz r3,0x0(r11)
    SPI(0x00);
  402f2c:	d4 0b 10 00 	l.sw 0x0(r11),r2
  402f30:	84 6b 00 00 	l.lwz r3,0x0(r11)
    SPI(sector_number); //sector number
  402f34:	d4 0b 28 00 	l.sw 0x0(r11),r5
  402f38:	84 6b 00 00 	l.lwz r3,0x0(r11)
    SPI(0x00);
  402f3c:	d4 0b 10 00 	l.sw 0x0(r11),r2
  402f40:	84 6b 00 00 	l.lwz r3,0x0(r11)
    SPI(cylinder_low); // cylinder low
  402f44:	d4 0b 30 00 	l.sw 0x0(r11),r6
  402f48:	84 6b 00 00 	l.lwz r3,0x0(r11)
    SPI(0x00);
  402f4c:	d4 0b 10 00 	l.sw 0x0(r11),r2
  402f50:	84 6b 00 00 	l.lwz r3,0x0(r11)
    SPI(cylinder_high); // cylinder high
  402f54:	d4 0b 38 00 	l.sw 0x0(r11),r7
  402f58:	84 6b 00 00 	l.lwz r3,0x0(r11)
    SPI(0x00);
  402f5c:	d4 0b 10 00 	l.sw 0x0(r11),r2
  402f60:	84 6b 00 00 	l.lwz r3,0x0(r11)
    SPI(drive_head); // drive/head
  402f64:	d4 0b 40 00 	l.sw 0x0(r11),r8
  402f68:	84 6b 00 00 	l.lwz r3,0x0(r11)

    DisableFpga();
  402f6c:	9c 60 00 20 	l.addi r3,r0,0x20
  402f70:	d4 0c 18 00 	l.sw 0x0(r12),r3

  DEBUG_FUNC_OUT(DEBUG_F_HDD | DEBUG_L2);
}
  402f74:	9c 21 00 04 	l.addi r1,r1,0x4
  402f78:	44 00 48 00 	l.jr r9
  402f7c:	84 41 ff fc 	l.lwz r2,0xfffffffc(r1)

00402f80 <WriteStatus>:

void WriteStatus(unsigned char status)
{
  DEBUG_FUNC_IN(DEBUG_F_HDD | DEBUG_L2);

    EnableFpga();
  402f80:	18 80 00 80 	l.movhi r4,0x80
  402f84:	9c c0 00 22 	l.addi r6,r0,0x22
  402f88:	a8 a4 00 20 	l.ori r5,r4,0x20
  DEBUG_FUNC_OUT(DEBUG_F_HDD | DEBUG_L2);
}


void WriteStatus(unsigned char status)
{
  402f8c:	d7 e1 17 fc 	l.sw 0xfffffffc(r1),r2
  DEBUG_FUNC_IN(DEBUG_F_HDD | DEBUG_L2);

    EnableFpga();
  402f90:	d4 05 30 00 	l.sw 0x0(r5),r6

    SPI(CMD_IDE_STATUS_WR);
  402f94:	a8 84 00 24 	l.ori r4,r4,0x24
  402f98:	9c c0 00 f0 	l.addi r6,r0,0xf0
    SPI(status);
    SPI(0x00);
  402f9c:	9c 40 00 00 	l.addi r2,r0,0x0
{
  DEBUG_FUNC_IN(DEBUG_F_HDD | DEBUG_L2);

    EnableFpga();

    SPI(CMD_IDE_STATUS_WR);
  402fa0:	d4 04 30 00 	l.sw 0x0(r4),r6
  DEBUG_FUNC_OUT(DEBUG_F_HDD | DEBUG_L2);
}


void WriteStatus(unsigned char status)
{
  402fa4:	9c 21 ff fc 	l.addi r1,r1,0xfffffffc
  DEBUG_FUNC_IN(DEBUG_F_HDD | DEBUG_L2);

    EnableFpga();

    SPI(CMD_IDE_STATUS_WR);
  402fa8:	84 c4 00 00 	l.lwz r6,0x0(r4)
    SPI(status);
  402fac:	d4 04 18 00 	l.sw 0x0(r4),r3
  402fb0:	84 64 00 00 	l.lwz r3,0x0(r4)
    SPI(0x00);
  402fb4:	d4 04 10 00 	l.sw 0x0(r4),r2
  402fb8:	84 64 00 00 	l.lwz r3,0x0(r4)
    SPI(0x00);
  402fbc:	d4 04 10 00 	l.sw 0x0(r4),r2
  402fc0:	84 64 00 00 	l.lwz r3,0x0(r4)
    SPI(0x00);
  402fc4:	d4 04 10 00 	l.sw 0x0(r4),r2
  402fc8:	84 64 00 00 	l.lwz r3,0x0(r4)
    SPI(0x00);
  402fcc:	d4 04 10 00 	l.sw 0x0(r4),r2
  402fd0:	84 64 00 00 	l.lwz r3,0x0(r4)

    DisableFpga();
  402fd4:	9c 60 00 20 	l.addi r3,r0,0x20
  402fd8:	d4 05 18 00 	l.sw 0x0(r5),r3

  DEBUG_FUNC_OUT(DEBUG_F_HDD | DEBUG_L2);
}
  402fdc:	9c 21 00 04 	l.addi r1,r1,0x4
  402fe0:	44 00 48 00 	l.jr r9
  402fe4:	84 41 ff fc 	l.lwz r2,0xfffffffc(r1)

00402fe8 <BuildHardfileIndex>:
  DEBUG_FUNC_OUT(DEBUG_F_HDD | DEBUG_L1);
}


void BuildHardfileIndex(hdfTYPE *pHDF)
{
  402fe8:	d7 e1 17 e8 	l.sw 0xffffffe8(r1),r2
  402fec:	d7 e1 77 ec 	l.sw 0xffffffec(r1),r14
  402ff0:	d7 e1 97 f4 	l.sw 0xfffffff4(r1),r18
  402ff4:	d7 e1 a7 f8 	l.sw 0xfffffff8(r1),r20
  402ff8:	d7 e1 4f fc 	l.sw 0xfffffffc(r1),r9
  402ffc:	d7 e1 87 f0 	l.sw 0xfffffff0(r1),r16
  403000:	a8 43 00 00 	l.ori r2,r3,0x0
  DEBUG_FUNC_IN(DEBUG_F_HDD | DEBUG_L1);

    // builds index to speed up hard file seek

    fileTYPE *file = &pHDF->file;
  403004:	9e 83 00 04 	l.addi r20,r3,0x4
    unsigned long *index = pHDF->index;
  403008:	9e 43 01 40 	l.addi r18,r3,0x140
    unsigned long i;
    unsigned long j;

    pHDF->index_size = 16; // indexing size
  40300c:	9c 60 00 10 	l.addi r3,r0,0x10
  DEBUG_FUNC_OUT(DEBUG_F_HDD | DEBUG_L1);
}


void BuildHardfileIndex(hdfTYPE *pHDF)
{
  403010:	9c 21 ff e8 	l.addi r1,r1,0xffffffe8
    fileTYPE *file = &pHDF->file;
    unsigned long *index = pHDF->index;
    unsigned long i;
    unsigned long j;

    pHDF->index_size = 16; // indexing size
  403014:	d4 42 19 40 	l.sw 0x1140(r2),r3
    j = 1 << pHDF->index_size;
    i = pHDF->file.size >> 10; // divided by index table size (1024)
  403018:	84 62 00 1c 	l.lwz r3,0x1c(r2)
    unsigned long *index = pHDF->index;
    unsigned long i;
    unsigned long j;

    pHDF->index_size = 16; // indexing size
    j = 1 << pHDF->index_size;
  40301c:	19 c0 00 01 	l.movhi r14,0x1
    i = pHDF->file.size >> 10; // divided by index table size (1024)
    while (j < i) // find greater or equal power of two
  403020:	00 00 00 06 	l.j 403038 <BuildHardfileIndex+0x50>
  403024:	b8 63 00 4a 	l.srli r3,r3,0xa
    {
        j <<= 1;
        pHDF->index_size++;
  403028:	84 82 11 40 	l.lwz r4,0x1140(r2)
    pHDF->index_size = 16; // indexing size
    j = 1 << pHDF->index_size;
    i = pHDF->file.size >> 10; // divided by index table size (1024)
    while (j < i) // find greater or equal power of two
    {
        j <<= 1;
  40302c:	e1 ce 70 00 	l.add r14,r14,r14
        pHDF->index_size++;
  403030:	9c 84 00 01 	l.addi r4,r4,0x1
  403034:	d4 42 21 40 	l.sw 0x1140(r2),r4
    unsigned long j;

    pHDF->index_size = 16; // indexing size
    j = 1 << pHDF->index_size;
    i = pHDF->file.size >> 10; // divided by index table size (1024)
    while (j < i) // find greater or equal power of two
  403038:	e4 8e 18 00 	l.sfltu r14,r3
  40303c:	13 ff ff fb 	l.bf 403028 <BuildHardfileIndex+0x40>
  403040:	9e 00 00 00 	l.addi r16,r0,0x0
    {
        j <<= 1;
        pHDF->index_size++;
    }

    for (i = 0; i < file->size; i += j)
  403044:	00 00 00 0a 	l.j 40306c <BuildHardfileIndex+0x84>
  403048:	84 62 00 1c 	l.lwz r3,0x1c(r2)
    {
        FileSeek(file, i >> 9, SEEK_SET); // FileSeek seeks in 512-byte sectors
  40304c:	a8 74 00 00 	l.ori r3,r20,0x0
  403050:	9c a0 00 00 	l.addi r5,r0,0x0
  403054:	04 00 08 ba 	l.jal 40533c <FileSeek>
  403058:	e2 10 70 00 	l.add r16,r16,r14
        *index++ = file->cluster;
  40305c:	84 62 00 20 	l.lwz r3,0x20(r2)
  403060:	d4 12 18 00 	l.sw 0x0(r18),r3
  403064:	9e 52 00 04 	l.addi r18,r18,0x4
    {
        j <<= 1;
        pHDF->index_size++;
    }

    for (i = 0; i < file->size; i += j)
  403068:	84 62 00 1c 	l.lwz r3,0x1c(r2)
  40306c:	e4 90 18 00 	l.sfltu r16,r3
  403070:	13 ff ff f7 	l.bf 40304c <BuildHardfileIndex+0x64>
  403074:	b8 90 00 49 	l.srli r4,r16,0x9
        FileSeek(file, i >> 9, SEEK_SET); // FileSeek seeks in 512-byte sectors
        *index++ = file->cluster;
    }

  DEBUG_FUNC_OUT(DEBUG_F_HDD | DEBUG_L1);
}
  403078:	9c 21 00 18 	l.addi r1,r1,0x18
  40307c:	85 21 ff fc 	l.lwz r9,0xfffffffc(r1)
  403080:	84 41 ff e8 	l.lwz r2,0xffffffe8(r1)
  403084:	85 c1 ff ec 	l.lwz r14,0xffffffec(r1)
  403088:	86 01 ff f0 	l.lwz r16,0xfffffff0(r1)
  40308c:	86 41 ff f4 	l.lwz r18,0xfffffff4(r1)
  403090:	44 00 48 00 	l.jr r9
  403094:	86 81 ff f8 	l.lwz r20,0xfffffff8(r1)

00403098 <HardFileSeek>:


unsigned char HardFileSeek(hdfTYPE *pHDF, unsigned long lba)
{
  403098:	d7 e1 4f fc 	l.sw 0xfffffffc(r1),r9
  DEBUG_FUNC_IN(DEBUG_F_HDD | DEBUG_L2);

    if ((pHDF->file.sector ^ lba) & cluster_mask)
  40309c:	18 e0 00 41 	l.movhi r7,0x41
  4030a0:	84 c3 00 18 	l.lwz r6,0x18(r3)
  4030a4:	a8 e7 a8 e0 	l.ori r7,r7,0xa8e0
  4030a8:	e0 a4 30 05 	l.xor r5,r4,r6
  4030ac:	84 e7 00 00 	l.lwz r7,0x0(r7)
  4030b0:	e1 05 38 03 	l.and r8,r5,r7
  4030b4:	bc 08 00 00 	l.sfeqi r8,0x0
  4030b8:	10 00 00 1c 	l.bf 403128 <HardFileSeek+0x90>
  4030bc:	9c 21 ff fc 	l.addi r1,r1,0xfffffffc
    { // different clusters
        if ((pHDF->file.sector > lba) || ((pHDF->file.sector ^ lba) & (cluster_mask << (fat32 ? 7 : 8)))) // 7: 128 FAT32 links per sector, 8: 256 FAT16 links per sector
  4030c0:	e4 46 20 00 	l.sfgtu r6,r4
  4030c4:	10 00 00 0d 	l.bf 4030f8 <HardFileSeek+0x60>
  4030c8:	18 c0 00 41 	l.movhi r6,0x41
  4030cc:	a8 c6 a3 51 	l.ori r6,r6,0xa351
  4030d0:	8d 06 00 00 	l.lbz r8,0x0(r6)
  4030d4:	bc 08 00 00 	l.sfeqi r8,0x0
  4030d8:	10 00 00 03 	l.bf 4030e4 <HardFileSeek+0x4c>
  4030dc:	9c c0 00 08 	l.addi r6,r0,0x8
  4030e0:	9c c0 00 07 	l.addi r6,r0,0x7
  4030e4:	e0 c7 30 08 	l.sll r6,r7,r6
  4030e8:	e0 a6 28 03 	l.and r5,r6,r5
  4030ec:	bc 05 00 00 	l.sfeqi r5,0x0
  4030f0:	10 00 00 0e 	l.bf 403128 <HardFileSeek+0x90>
  4030f4:	15 00 00 00 	l.nop 0x0
        { // requested cluster lies before current pointer position or in different FAT sector
            pHDF->file.cluster = pHDF->index[lba >> (pHDF->index_size - 9)];// minus 9 because lba is in 512-byte sectors
  4030f8:	84 a3 11 40 	l.lwz r5,0x1140(r3)
  4030fc:	9c a5 ff f7 	l.addi r5,r5,0xfffffff7
  403100:	e0 c4 28 48 	l.srl r6,r4,r5
  403104:	9c c6 00 50 	l.addi r6,r6,0x50
  403108:	b8 c6 00 02 	l.slli r6,r6,0x2
  40310c:	e0 c3 30 00 	l.add r6,r3,r6
  403110:	84 c6 00 00 	l.lwz r6,0x0(r6)
  403114:	d4 03 30 20 	l.sw 0x20(r3),r6
            pHDF->file.sector = lba & (-1 << (pHDF->index_size - 9));
  403118:	9c c0 ff ff 	l.addi r6,r0,0xffffffff
  40311c:	e0 a6 28 08 	l.sll r5,r6,r5
  403120:	e0 a5 20 03 	l.and r5,r5,r4
  403124:	d4 03 28 18 	l.sw 0x18(r3),r5
        }
    }
    return FileSeek(&pHDF->file, lba, SEEK_SET);

  DEBUG_FUNC_OUT(DEBUG_F_HDD | DEBUG_L2);
}
  403128:	9c 21 00 04 	l.addi r1,r1,0x4
        { // requested cluster lies before current pointer position or in different FAT sector
            pHDF->file.cluster = pHDF->index[lba >> (pHDF->index_size - 9)];// minus 9 because lba is in 512-byte sectors
            pHDF->file.sector = lba & (-1 << (pHDF->index_size - 9));
        }
    }
    return FileSeek(&pHDF->file, lba, SEEK_SET);
  40312c:	9c 63 00 04 	l.addi r3,r3,0x4

  DEBUG_FUNC_OUT(DEBUG_F_HDD | DEBUG_L2);
}
  403130:	85 21 ff fc 	l.lwz r9,0xfffffffc(r1)
        { // requested cluster lies before current pointer position or in different FAT sector
            pHDF->file.cluster = pHDF->index[lba >> (pHDF->index_size - 9)];// minus 9 because lba is in 512-byte sectors
            pHDF->file.sector = lba & (-1 << (pHDF->index_size - 9));
        }
    }
    return FileSeek(&pHDF->file, lba, SEEK_SET);
  403134:	00 00 08 82 	l.j 40533c <FileSeek>
  403138:	9c a0 00 00 	l.addi r5,r0,0x0

0040313c <DebugMessage>:
  DEBUG_FUNC_OUT(DEBUG_F_MENU | DEBUG_L1);
}


void DebugMessage(char *message)
{
  40313c:	d7 e1 17 f0 	l.sw 0xfffffff0(r1),r2
  DEBUG_FUNC_IN(DEBUG_F_MENU | DEBUG_L1);

	strncpy(&debuglines[debugptr*32],message,31);
  403140:	18 40 00 42 	l.movhi r2,0x42
  DEBUG_FUNC_OUT(DEBUG_F_MENU | DEBUG_L1);
}


void DebugMessage(char *message)
{
  403144:	d7 e1 4f fc 	l.sw 0xfffffffc(r1),r9
  403148:	d7 e1 87 f8 	l.sw 0xfffffff8(r1),r16
  40314c:	d7 e1 77 f4 	l.sw 0xfffffff4(r1),r14
  DEBUG_FUNC_IN(DEBUG_F_MENU | DEBUG_L1);

	strncpy(&debuglines[debugptr*32],message,31);
  403150:	a8 42 0a 64 	l.ori r2,r2,0xa64
  DEBUG_FUNC_OUT(DEBUG_F_MENU | DEBUG_L1);
}


void DebugMessage(char *message)
{
  403154:	a8 83 00 00 	l.ori r4,r3,0x0
  DEBUG_FUNC_IN(DEBUG_F_MENU | DEBUG_L1);

	strncpy(&debuglines[debugptr*32],message,31);
  403158:	91 c2 00 00 	l.lbs r14,0x0(r2)
  40315c:	18 60 00 42 	l.movhi r3,0x42
  403160:	ba 0e 00 05 	l.slli r16,r14,0x5
  403164:	a8 63 0a 68 	l.ori r3,r3,0xa68
  DEBUG_FUNC_OUT(DEBUG_F_MENU | DEBUG_L1);
}


void DebugMessage(char *message)
{
  403168:	9c 21 ff f0 	l.addi r1,r1,0xfffffff0
  DEBUG_FUNC_IN(DEBUG_F_MENU | DEBUG_L1);

	strncpy(&debuglines[debugptr*32],message,31);
  40316c:	e2 10 18 00 	l.add r16,r16,r3
  403170:	9c a0 00 1f 	l.addi r5,r0,0x1f
  403174:	a8 70 00 00 	l.ori r3,r16,0x0
  403178:	07 ff f4 7d 	l.jal 40036c <strncpy>
  40317c:	9d ce 00 01 	l.addi r14,r14,0x1
	debuglines[debugptr*32+31]=0;
	debugptr=(debugptr+1)&7;
  403180:	a5 ce 00 07 	l.andi r14,r14,0x7
void DebugMessage(char *message)
{
  DEBUG_FUNC_IN(DEBUG_F_MENU | DEBUG_L1);

	strncpy(&debuglines[debugptr*32],message,31);
	debuglines[debugptr*32+31]=0;
  403184:	9c 60 00 00 	l.addi r3,r0,0x0
	debugptr=(debugptr+1)&7;
  403188:	d8 02 70 00 	l.sb 0x0(r2),r14
void DebugMessage(char *message)
{
  DEBUG_FUNC_IN(DEBUG_F_MENU | DEBUG_L1);

	strncpy(&debuglines[debugptr*32],message,31);
	debuglines[debugptr*32+31]=0;
  40318c:	d8 10 18 1f 	l.sb 0x1f(r16),r3
	debugptr=(debugptr+1)&7;

  DEBUG_FUNC_OUT(DEBUG_F_MENU | DEBUG_L1);
}
  403190:	9c 21 00 10 	l.addi r1,r1,0x10
  403194:	85 21 ff fc 	l.lwz r9,0xfffffffc(r1)
  403198:	84 41 ff f0 	l.lwz r2,0xfffffff0(r1)
  40319c:	85 c1 ff f4 	l.lwz r14,0xfffffff4(r1)
  4031a0:	44 00 48 00 	l.jr r9
  4031a4:	86 01 ff f8 	l.lwz r16,0xfffffff8(r1)

004031a8 <RDBChecksum.33881>:
//    }
//}


static void RDBChecksum(unsigned long *p)
{
  4031a8:	d7 e1 17 f4 	l.sw 0xfffffff4(r1),r2
  4031ac:	d7 e1 4f fc 	l.sw 0xfffffffc(r1),r9
  4031b0:	d7 e1 77 f8 	l.sw 0xfffffff8(r1),r14
  4031b4:	a8 43 00 00 	l.ori r2,r3,0x0
  DEBUG_FUNC_IN(DEBUG_F_HDD | DEBUG_L1);

	unsigned long count=p[1];
  4031b8:	85 c3 00 04 	l.lwz r14,0x4(r3)
	unsigned long c2;
	long result=0;
	DebugMessage("Generating checksum");
  4031bc:	18 60 00 41 	l.movhi r3,0x41
//    }
//}


static void RDBChecksum(unsigned long *p)
{
  4031c0:	9c 21 ff f4 	l.addi r1,r1,0xfffffff4
  DEBUG_FUNC_IN(DEBUG_F_HDD | DEBUG_L1);

	unsigned long count=p[1];
	unsigned long c2;
	long result=0;
	DebugMessage("Generating checksum");
  4031c4:	07 ff ff de 	l.jal 40313c <DebugMessage>
  4031c8:	a8 63 77 73 	l.ori r3,r3,0x7773
	p[2]=0;
  4031cc:	9c 60 00 00 	l.addi r3,r0,0x0
  4031d0:	9c c2 00 08 	l.addi r6,r2,0x8
{
  DEBUG_FUNC_IN(DEBUG_F_HDD | DEBUG_L1);

	unsigned long count=p[1];
	unsigned long c2;
	long result=0;
  4031d4:	9c 80 00 00 	l.addi r4,r0,0x0
	DebugMessage("Generating checksum");
	p[2]=0;
  4031d8:	d4 06 18 00 	l.sw 0x0(r6),r3
	for(c2=0;c2<count;++c2)
  4031dc:	a8 a4 00 00 	l.ori r5,r4,0x0
  4031e0:	00 00 00 06 	l.j 4031f8 <RDBChecksum.33881+0x50>
  4031e4:	a8 62 00 00 	l.ori r3,r2,0x0
		result+=p[c2];
  4031e8:	84 43 00 00 	l.lwz r2,0x0(r3)
	unsigned long count=p[1];
	unsigned long c2;
	long result=0;
	DebugMessage("Generating checksum");
	p[2]=0;
	for(c2=0;c2<count;++c2)
  4031ec:	9c a5 00 01 	l.addi r5,r5,0x1
		result+=p[c2];
  4031f0:	e0 84 10 00 	l.add r4,r4,r2
	unsigned long count=p[1];
	unsigned long c2;
	long result=0;
	DebugMessage("Generating checksum");
	p[2]=0;
	for(c2=0;c2<count;++c2)
  4031f4:	9c 63 00 04 	l.addi r3,r3,0x4
  4031f8:	e4 85 70 00 	l.sfltu r5,r14
  4031fc:	13 ff ff fb 	l.bf 4031e8 <RDBChecksum.33881+0x40>
  403200:	15 00 00 00 	l.nop 0x0
		result+=p[c2];
	p[2]=(unsigned long)-result;
  403204:	e0 80 20 02 	l.sub r4,r0,r4
  403208:	d4 06 20 00 	l.sw 0x0(r6),r4

  DEBUG_FUNC_OUT(DEBUG_F_HDD | DEBUG_L1);
}
  40320c:	9c 21 00 0c 	l.addi r1,r1,0xc
  403210:	85 21 ff fc 	l.lwz r9,0xfffffffc(r1)
  403214:	84 41 ff f4 	l.lwz r2,0xfffffff4(r1)
  403218:	44 00 48 00 	l.jr r9
  40321c:	85 c1 ff f8 	l.lwz r14,0xfffffff8(r1)

00403220 <MMC_CRC>:
void MMC_CRC(unsigned char c)
{
  DEBUG_FUNC_IN(DEBUG_F_MMC | DEBUG_L2);
    unsigned char i;

    for (i = 0; i < 8; i++)
  403220:	18 80 00 41 	l.movhi r4,0x41
  403224:	9c a0 00 00 	l.addi r5,r0,0x0
  403228:	a8 84 fd 5c 	l.ori r4,r4,0xfd5c
  40322c:	8c 84 00 00 	l.lbz r4,0x0(r4)
    {
        crc <<= 1;
        if (c & 0x80)
  403230:	b8 c3 00 18 	l.slli r6,r3,0x18
  DEBUG_FUNC_IN(DEBUG_F_MMC | DEBUG_L2);
    unsigned char i;

    for (i = 0; i < 8; i++)
    {
        crc <<= 1;
  403234:	e0 84 20 00 	l.add r4,r4,r4
        if (c & 0x80)
  403238:	bd 66 00 00 	l.sfgesi r6,0x0
  40323c:	10 00 00 03 	l.bf 403248 <MMC_CRC+0x28>
  403240:	a4 84 00 ff 	l.andi r4,r4,0xff
            crc ^= 0x09;
  403244:	ac 84 00 09 	l.xori r4,r4,0x9
        if (crc & 0x80)
  403248:	b8 c4 00 18 	l.slli r6,r4,0x18
  40324c:	bd 66 00 00 	l.sfgesi r6,0x0
  403250:	10 00 00 03 	l.bf 40325c <MMC_CRC+0x3c>
  403254:	15 00 00 00 	l.nop 0x0
            crc ^= 0x09;
  403258:	ac 84 00 09 	l.xori r4,r4,0x9
void MMC_CRC(unsigned char c)
{
  DEBUG_FUNC_IN(DEBUG_F_MMC | DEBUG_L2);
    unsigned char i;

    for (i = 0; i < 8; i++)
  40325c:	9c a5 00 01 	l.addi r5,r5,0x1
  403260:	a4 a5 00 ff 	l.andi r5,r5,0xff
  403264:	bc 05 00 08 	l.sfeqi r5,0x8
  403268:	10 00 00 04 	l.bf 403278 <MMC_CRC+0x58>
  40326c:	e0 63 18 00 	l.add r3,r3,r3
        crc <<= 1;
        if (c & 0x80)
            crc ^= 0x09;
        if (crc & 0x80)
            crc ^= 0x09;
        c <<= 1;
  403270:	03 ff ff f0 	l.j 403230 <MMC_CRC+0x10>
  403274:	a4 63 00 ff 	l.andi r3,r3,0xff
  403278:	18 60 00 41 	l.movhi r3,0x41
  40327c:	a8 63 fd 5c 	l.ori r3,r3,0xfd5c
    }
  DEBUG_FUNC_OUT(DEBUG_F_MMC | DEBUG_L2);
}
  403280:	44 00 48 00 	l.jr r9
  403284:	d8 03 20 00 	l.sb 0x0(r3),r4

00403288 <MMC_Command>:
}


// MMC command
unsigned char MMC_Command(unsigned char cmd, unsigned long arg)
{
  403288:	d7 e1 87 f4 	l.sw 0xfffffff4(r1),r16
  DEBUG_FUNC_IN(DEBUG_F_MMC | DEBUG_L2);

    unsigned char c;

    crc = 0;
  40328c:	1a 00 00 41 	l.movhi r16,0x41
}


// MMC command
unsigned char MMC_Command(unsigned char cmd, unsigned long arg)
{
  403290:	d7 e1 17 ec 	l.sw 0xffffffec(r1),r2
  DEBUG_FUNC_IN(DEBUG_F_MMC | DEBUG_L2);

    unsigned char c;

    crc = 0;
  403294:	aa 10 fd 5c 	l.ori r16,r16,0xfd5c
  403298:	9c 40 00 00 	l.addi r2,r0,0x0
}


// MMC command
unsigned char MMC_Command(unsigned char cmd, unsigned long arg)
{
  40329c:	d7 e1 97 f8 	l.sw 0xfffffff8(r1),r18
  DEBUG_FUNC_IN(DEBUG_F_MMC | DEBUG_L2);

    unsigned char c;

    crc = 0;
  4032a0:	d8 10 10 00 	l.sb 0x0(r16),r2
    SPI(0xFF); // flush SPI-bus
  4032a4:	18 40 00 80 	l.movhi r2,0x80
  4032a8:	9e 40 00 ff 	l.addi r18,r0,0xff
  4032ac:	a8 42 00 24 	l.ori r2,r2,0x24
}


// MMC command
unsigned char MMC_Command(unsigned char cmd, unsigned long arg)
{
  4032b0:	d7 e1 4f fc 	l.sw 0xfffffffc(r1),r9
  4032b4:	d7 e1 77 f0 	l.sw 0xfffffff0(r1),r14
  DEBUG_FUNC_IN(DEBUG_F_MMC | DEBUG_L2);

    unsigned char c;

    crc = 0;
    SPI(0xFF); // flush SPI-bus
  4032b8:	d4 02 90 00 	l.sw 0x0(r2),r18
}


// MMC command
unsigned char MMC_Command(unsigned char cmd, unsigned long arg)
{
  4032bc:	a9 c4 00 00 	l.ori r14,r4,0x0
  DEBUG_FUNC_IN(DEBUG_F_MMC | DEBUG_L2);

    unsigned char c;

    crc = 0;
    SPI(0xFF); // flush SPI-bus
  4032c0:	84 82 00 00 	l.lwz r4,0x0(r2)

    SPI(cmd);
  4032c4:	d4 02 18 00 	l.sw 0x0(r2),r3
}


// MMC command
unsigned char MMC_Command(unsigned char cmd, unsigned long arg)
{
  4032c8:	9c 21 ff ec 	l.addi r1,r1,0xffffffec
    unsigned char c;

    crc = 0;
    SPI(0xFF); // flush SPI-bus

    SPI(cmd);
  4032cc:	84 82 00 00 	l.lwz r4,0x0(r2)
    MMC_CRC(cmd);
  4032d0:	07 ff ff d4 	l.jal 403220 <MMC_CRC>
  4032d4:	15 00 00 00 	l.nop 0x0

    c = (unsigned char)(arg >> 24);
  4032d8:	b8 6e 00 58 	l.srli r3,r14,0x18
    SPI(c);
  4032dc:	d4 02 18 00 	l.sw 0x0(r2),r3
  4032e0:	84 82 00 00 	l.lwz r4,0x0(r2)
    MMC_CRC(c);
  4032e4:	07 ff ff cf 	l.jal 403220 <MMC_CRC>
  4032e8:	15 00 00 00 	l.nop 0x0

    c = (unsigned char)(arg >> 16);
  4032ec:	b8 6e 00 50 	l.srli r3,r14,0x10
  4032f0:	a4 63 00 ff 	l.andi r3,r3,0xff
    SPI(c);
  4032f4:	d4 02 18 00 	l.sw 0x0(r2),r3
  4032f8:	84 82 00 00 	l.lwz r4,0x0(r2)
    MMC_CRC(c);
  4032fc:	07 ff ff c9 	l.jal 403220 <MMC_CRC>
  403300:	15 00 00 00 	l.nop 0x0

    c = (unsigned char)(arg >> 8);
  403304:	b8 6e 00 48 	l.srli r3,r14,0x8
  403308:	a4 63 00 ff 	l.andi r3,r3,0xff
    SPI(c);
  40330c:	d4 02 18 00 	l.sw 0x0(r2),r3
  403310:	84 82 00 00 	l.lwz r4,0x0(r2)
    MMC_CRC(c);
  403314:	07 ff ff c3 	l.jal 403220 <MMC_CRC>
  403318:	15 00 00 00 	l.nop 0x0

    c = (unsigned char)(arg);
  40331c:	a4 6e 00 ff 	l.andi r3,r14,0xff
    SPI(c);
  403320:	d4 02 18 00 	l.sw 0x0(r2),r3
  403324:	84 82 00 00 	l.lwz r4,0x0(r2)
    MMC_CRC(c);
  403328:	07 ff ff be 	l.jal 403220 <MMC_CRC>
  40332c:	15 00 00 00 	l.nop 0x0

    crc <<= 1;
  403330:	8c 70 00 00 	l.lbz r3,0x0(r16)
  403334:	e0 63 18 00 	l.add r3,r3,r3
    crc++;
  403338:	9c 63 00 01 	l.addi r3,r3,0x1
  40333c:	a4 63 00 ff 	l.andi r3,r3,0xff
  403340:	d8 10 18 00 	l.sb 0x0(r16),r3
    SPI(crc);
  403344:	d4 02 18 00 	l.sw 0x0(r2),r3
  403348:	84 62 00 00 	l.lwz r3,0x0(r2)

    unsigned char Ncr = 100;  // Ncr = 0..8 (SD) / 1..8 (MMC)
  40334c:	9c 60 00 64 	l.addi r3,r0,0x64
    do
        response = SPI(0xFF); // get response
  403350:	d4 02 90 00 	l.sw 0x0(r2),r18
  403354:	85 62 00 00 	l.lwz r11,0x0(r2)
  403358:	a5 6b 00 ff 	l.andi r11,r11,0xff
    while (response == 0xFF && Ncr--);
  40335c:	bc 0b 00 ff 	l.sfeqi r11,0xff
  403360:	10 00 00 06 	l.bf 403378 <MMC_Command+0xf0>
  403364:	bc 03 00 00 	l.sfeqi r3,0x0
  403368:	18 40 00 41 	l.movhi r2,0x41
  40336c:	a8 42 fd 64 	l.ori r2,r2,0xfd64
  403370:	00 00 00 0a 	l.j 403398 <MMC_Command+0x110>
  403374:	d8 02 58 00 	l.sb 0x0(r2),r11
  403378:	10 00 00 04 	l.bf 403388 <MMC_Command+0x100>
  40337c:	9c 63 ff ff 	l.addi r3,r3,0xffffffff
  403380:	03 ff ff f4 	l.j 403350 <MMC_Command+0xc8>
  403384:	a4 63 00 ff 	l.andi r3,r3,0xff
  403388:	18 40 00 41 	l.movhi r2,0x41
  40338c:	9c 60 ff ff 	l.addi r3,r0,0xffffffff
  403390:	a8 42 fd 64 	l.ori r2,r2,0xfd64
  403394:	d8 02 18 00 	l.sb 0x0(r2),r3

    return response;

  DEBUG_FUNC_OUT(DEBUG_F_MMC | DEBUG_L2);
}
  403398:	9c 21 00 14 	l.addi r1,r1,0x14
  40339c:	85 21 ff fc 	l.lwz r9,0xfffffffc(r1)
  4033a0:	84 41 ff ec 	l.lwz r2,0xffffffec(r1)
  4033a4:	85 c1 ff f0 	l.lwz r14,0xfffffff0(r1)
  4033a8:	86 01 ff f4 	l.lwz r16,0xfffffff4(r1)
  4033ac:	44 00 48 00 	l.jr r9
  4033b0:	86 41 ff f8 	l.lwz r18,0xfffffff8(r1)

004033b4 <quickrand.44673>:
static int quickrand()
{
  DEBUG_FUNC_IN(DEBUG_F_OSD | DEBUG_L2);

	static int prev;
	int r=*(volatile unsigned long *)0x80000c;
  4033b4:	18 60 00 80 	l.movhi r3,0x80
	r^=(prev&0xc75a)<<4;
  4033b8:	18 80 00 42 	l.movhi r4,0x42
static int quickrand()
{
  DEBUG_FUNC_IN(DEBUG_F_OSD | DEBUG_L2);

	static int prev;
	int r=*(volatile unsigned long *)0x80000c;
  4033bc:	a8 63 00 0c 	l.ori r3,r3,0xc
	r^=(prev&0xc75a)<<4;
  4033c0:	a8 84 0a 60 	l.ori r4,r4,0xa60
static int quickrand()
{
  DEBUG_FUNC_IN(DEBUG_F_OSD | DEBUG_L2);

	static int prev;
	int r=*(volatile unsigned long *)0x80000c;
  4033c4:	84 a3 00 00 	l.lwz r5,0x0(r3)
	r^=(prev&0xc75a)<<4;
  4033c8:	84 64 00 00 	l.lwz r3,0x0(r4)
	r^=(prev&0x5a7c)>>(prev&7);
  4033cc:	a4 c3 5a 7c 	l.andi r6,r3,0x5a7c
{
  DEBUG_FUNC_IN(DEBUG_F_OSD | DEBUG_L2);

	static int prev;
	int r=*(volatile unsigned long *)0x80000c;
	r^=(prev&0xc75a)<<4;
  4033d0:	a5 63 c7 5a 	l.andi r11,r3,0xc75a
	r^=(prev&0x5a7c)>>(prev&7);
  4033d4:	a4 63 00 07 	l.andi r3,r3,0x7
{
  DEBUG_FUNC_IN(DEBUG_F_OSD | DEBUG_L2);

	static int prev;
	int r=*(volatile unsigned long *)0x80000c;
	r^=(prev&0xc75a)<<4;
  4033d8:	b9 6b 00 04 	l.slli r11,r11,0x4
	r^=(prev&0x5a7c)>>(prev&7);
  4033dc:	e0 66 18 88 	l.sra r3,r6,r3
{
  DEBUG_FUNC_IN(DEBUG_F_OSD | DEBUG_L2);

	static int prev;
	int r=*(volatile unsigned long *)0x80000c;
	r^=(prev&0xc75a)<<4;
  4033e0:	e1 6b 18 05 	l.xor r11,r11,r3
	r^=(prev&0x5a7c)>>(prev&7);
  4033e4:	e1 6b 28 05 	l.xor r11,r11,r5
	prev=r;
	return(r);

  DEBUG_FUNC_OUT(DEBUG_F_OSD | DEBUG_L2);
}
  4033e8:	44 00 48 00 	l.jr r9
  4033ec:	d4 04 58 00 	l.sw 0x0(r4),r11

004033f0 <OsdSetTitle>:
void OsdSetTitle(char *s,int a)
{
  DEBUG_FUNC_IN(DEBUG_F_OSD | DEBUG_L2);

	// Compose the title, condensing character gaps
	arrow=a;
  4033f0:	18 a0 00 42 	l.movhi r5,0x42
  DEBUG_FUNC_OUT(DEBUG_F_OSD | DEBUG_L2);
}


void OsdSetTitle(char *s,int a)
{
  4033f4:	d7 e1 17 fc 	l.sw 0xfffffffc(r1),r2
  DEBUG_FUNC_IN(DEBUG_F_OSD | DEBUG_L2);

	// Compose the title, condensing character gaps
	arrow=a;
  4033f8:	a8 a5 0a 5c 	l.ori r5,r5,0xa5c
  DEBUG_FUNC_OUT(DEBUG_F_OSD | DEBUG_L2);
}


void OsdSetTitle(char *s,int a)
{
  4033fc:	9c 21 ff f4 	l.addi r1,r1,0xfffffff4
  DEBUG_FUNC_IN(DEBUG_F_OSD | DEBUG_L2);

	// Compose the title, condensing character gaps
	arrow=a;
  403400:	d4 05 20 00 	l.sw 0x0(r5),r4
	char zeros=0;
	int i=0;
  char j=0;
	int outp=0;
  403404:	9c 80 00 00 	l.addi r4,r0,0x0
{
  DEBUG_FUNC_IN(DEBUG_F_OSD | DEBUG_L2);

	// Compose the title, condensing character gaps
	arrow=a;
	char zeros=0;
  403408:	00 00 00 03 	l.j 403414 <OsdSetTitle+0x24>
  40340c:	a8 a4 00 00 	l.ori r5,r4,0x0
void OsdSetTitle(char *s,int a)
{
  DEBUG_FUNC_IN(DEBUG_F_OSD | DEBUG_L2);

	// Compose the title, condensing character gaps
	arrow=a;
  403410:	9c 63 00 01 	l.addi r3,r3,0x1
	int i=0;
  char j=0;
	int outp=0;
	while(1)
	{
		int c=s[i++];
  403414:	90 c3 00 00 	l.lbs r6,0x0(r3)
		if(c && (outp<64))
  403418:	bd a4 00 3f 	l.sflesi r4,0x3f
  40341c:	10 00 00 03 	l.bf 403428 <OsdSetTitle+0x38>
  403420:	9c e0 00 01 	l.addi r7,r0,0x1
  403424:	9c e0 00 00 	l.addi r7,r0,0x0
  403428:	a4 e7 00 ff 	l.andi r7,r7,0xff
  40342c:	bc 07 00 00 	l.sfeqi r7,0x0
  403430:	10 00 00 06 	l.bf 403448 <OsdSetTitle+0x58>
  403434:	e0 e0 30 02 	l.sub r7,r0,r6
  403438:	e0 e7 30 04 	l.or r7,r7,r6
  40343c:	bd 87 00 00 	l.sfltsi r7,0x0
  403440:	10 00 00 04 	l.bf 403450 <OsdSetTitle+0x60>
  403444:	18 40 00 41 	l.movhi r2,0x41
  403448:	00 00 00 26 	l.j 4034e0 <OsdSetTitle+0xf0>
  40344c:	a8 64 00 00 	l.ori r3,r4,0x0
		{
	        unsigned char *p = &charfont[c][0];
  403450:	b8 c6 00 03 	l.slli r6,r6,0x3
  403454:	a8 42 9b 3c 	l.ori r2,r2,0x9b3c
  403458:	e1 06 10 00 	l.add r8,r6,r2
  40345c:	9c c0 00 00 	l.addi r6,r0,0x0

  DEBUG_FUNC_OUT(DEBUG_F_OSD | DEBUG_L2);
}


void OsdSetTitle(char *s,int a)
  403460:	e0 e8 30 00 	l.add r7,r8,r6
		if(c && (outp<64))
		{
	        unsigned char *p = &charfont[c][0];
			for(j=0;j<8;++j)
			{
				unsigned char nc=*p++;
  403464:	8c e7 00 00 	l.lbz r7,0x0(r7)
				if(nc)
  403468:	bc 07 00 00 	l.sfeqi r7,0x0
  40346c:	10 00 00 09 	l.bf 403490 <OsdSetTitle+0xa0>
  403470:	bc 25 00 00 	l.sfnei r5,0x0
				{
					zeros=0;
					titlebuffer[outp++]=nc;
  403474:	18 40 00 42 	l.movhi r2,0x42
  403478:	a8 42 0a 1c 	l.ori r2,r2,0xa1c
  40347c:	e0 a4 10 00 	l.add r5,r4,r2
  403480:	9c 84 00 01 	l.addi r4,r4,0x1
  403484:	d8 05 38 00 	l.sb 0x0(r5),r7
			for(j=0;j<8;++j)
			{
				unsigned char nc=*p++;
				if(nc)
				{
					zeros=0;
  403488:	00 00 00 09 	l.j 4034ac <OsdSetTitle+0xbc>
  40348c:	9c a0 00 00 	l.addi r5,r0,0x0
					titlebuffer[outp++]=nc;
				}
				else if(zeros==0)
  403490:	10 00 00 06 	l.bf 4034a8 <OsdSetTitle+0xb8>
  403494:	18 40 00 42 	l.movhi r2,0x42
				{
					titlebuffer[outp++]=0;
  403498:	a8 42 0a 1c 	l.ori r2,r2,0xa1c
  40349c:	e0 e4 10 00 	l.add r7,r4,r2
  4034a0:	9c 84 00 01 	l.addi r4,r4,0x1
  4034a4:	d8 07 28 00 	l.sb 0x0(r7),r5
				if(nc)
				{
					zeros=0;
					titlebuffer[outp++]=nc;
				}
				else if(zeros==0)
  4034a8:	9c a0 00 01 	l.addi r5,r0,0x1
				{
					titlebuffer[outp++]=0;
					zeros=1;
				}
				if(outp>63)
  4034ac:	bd 44 00 3f 	l.sfgtsi r4,0x3f
  4034b0:	13 ff ff d8 	l.bf 403410 <OsdSetTitle+0x20>
  4034b4:	9c c6 00 01 	l.addi r6,r6,0x1
	{
		int c=s[i++];
		if(c && (outp<64))
		{
	        unsigned char *p = &charfont[c][0];
			for(j=0;j<8;++j)
  4034b8:	bc 26 00 08 	l.sfnei r6,0x8
  4034bc:	13 ff ff ea 	l.bf 403464 <OsdSetTitle+0x74>
  4034c0:	e0 e8 30 00 	l.add r7,r8,r6
void OsdSetTitle(char *s,int a)
{
  DEBUG_FUNC_IN(DEBUG_F_OSD | DEBUG_L2);

	// Compose the title, condensing character gaps
	arrow=a;
  4034c4:	03 ff ff d4 	l.j 403414 <OsdSetTitle+0x24>
  4034c8:	9c 63 00 01 	l.addi r3,r3,0x1

  DEBUG_FUNC_OUT(DEBUG_F_OSD | DEBUG_L2);
}


void OsdSetTitle(char *s,int a)
  4034cc:	a8 42 0a 1c 	l.ori r2,r2,0xa1c
  4034d0:	e0 a3 10 00 	l.add r5,r3,r2
		else
			break;
	}
	for(i=outp;i<64;++i)
	{
		titlebuffer[i]=0;
  4034d4:	9c 40 00 00 	l.addi r2,r0,0x0
			}
		}
		else
			break;
	}
	for(i=outp;i<64;++i)
  4034d8:	9c 63 00 01 	l.addi r3,r3,0x1
	{
		titlebuffer[i]=0;
  4034dc:	d8 05 10 00 	l.sb 0x0(r5),r2
			}
		}
		else
			break;
	}
	for(i=outp;i<64;++i)
  4034e0:	bd a3 00 3f 	l.sflesi r3,0x3f
  4034e4:	13 ff ff fa 	l.bf 4034cc <OsdSetTitle+0xdc>
  4034e8:	18 40 00 42 	l.movhi r2,0x42
	{
		titlebuffer[i]=0;
	}

	// Now centre it:
	int c=(63-outp)/2;
  4034ec:	9c a0 00 3f 	l.addi r5,r0,0x3f
  4034f0:	e0 85 20 02 	l.sub r4,r5,r4

  DEBUG_FUNC_OUT(DEBUG_F_OSD | DEBUG_L2);
}


void OsdSetTitle(char *s,int a)
  4034f4:	a8 42 0a 1c 	l.ori r2,r2,0xa1c
	{
		titlebuffer[i]=0;
	}

	// Now centre it:
	int c=(63-outp)/2;
  4034f8:	b8 64 00 5f 	l.srli r3,r4,0x1f
  4034fc:	e0 83 20 00 	l.add r4,r3,r4
  403500:	b8 84 00 81 	l.srai r4,r4,0x1
	for(i=(63-c);i>=0;--i)
  403504:	e0 a5 20 02 	l.sub r5,r5,r4
  403508:	00 00 00 06 	l.j 403520 <OsdSetTitle+0x130>
  40350c:	e0 65 10 00 	l.add r3,r5,r2
	{
		titlebuffer[i+c]=titlebuffer[i];
  403510:	8c 43 00 00 	l.lbz r2,0x0(r3)
		titlebuffer[i]=0;
	}

	// Now centre it:
	int c=(63-outp)/2;
	for(i=(63-c);i>=0;--i)
  403514:	9c a5 ff ff 	l.addi r5,r5,0xffffffff
	{
		titlebuffer[i+c]=titlebuffer[i];
  403518:	d8 06 10 00 	l.sb 0x0(r6),r2
		titlebuffer[i]=0;
	}

	// Now centre it:
	int c=(63-outp)/2;
	for(i=(63-c);i>=0;--i)
  40351c:	9c 63 ff ff 	l.addi r3,r3,0xffffffff
  403520:	bd 65 00 00 	l.sfgesi r5,0x0
  403524:	13 ff ff fb 	l.bf 403510 <OsdSetTitle+0x120>
  403528:	e0 c3 20 00 	l.add r6,r3,r4
  40352c:	00 00 00 07 	l.j 403548 <OsdSetTitle+0x158>
  403530:	9c 60 00 00 	l.addi r3,r0,0x0

  DEBUG_FUNC_OUT(DEBUG_F_OSD | DEBUG_L2);
}


void OsdSetTitle(char *s,int a)
  403534:	a8 42 0a 1c 	l.ori r2,r2,0xa1c
  403538:	e0 a3 10 00 	l.add r5,r3,r2
	for(i=(63-c);i>=0;--i)
	{
		titlebuffer[i+c]=titlebuffer[i];
	}
	for(i=0;i<c;++i)
		titlebuffer[i]=0;
  40353c:	9c 40 00 00 	l.addi r2,r0,0x0
	int c=(63-outp)/2;
	for(i=(63-c);i>=0;--i)
	{
		titlebuffer[i+c]=titlebuffer[i];
	}
	for(i=0;i<c;++i)
  403540:	9c 63 00 01 	l.addi r3,r3,0x1
		titlebuffer[i]=0;
  403544:	d8 05 10 00 	l.sb 0x0(r5),r2
	int c=(63-outp)/2;
	for(i=(63-c);i>=0;--i)
	{
		titlebuffer[i+c]=titlebuffer[i];
	}
	for(i=0;i<c;++i)
  403548:	e5 83 20 00 	l.sflts r3,r4
  40354c:	13 ff ff fa 	l.bf 403534 <OsdSetTitle+0x144>
  403550:	18 40 00 42 	l.movhi r2,0x42
  403554:	9c 60 00 00 	l.addi r3,r0,0x0

  DEBUG_FUNC_OUT(DEBUG_F_OSD | DEBUG_L2);
}


void OsdSetTitle(char *s,int a)
  403558:	a8 e1 00 00 	l.ori r7,r1,0x0
  40355c:	9d 01 00 08 	l.addi r8,r1,0x8

	// Finally rotate it.
	for(i=0;i<64;i+=8)
	{
		unsigned char tmp[8];
		rotatechar(&titlebuffer[i],tmp);
  403560:	18 40 00 42 	l.movhi r2,0x42
  DEBUG_FUNC_IN(DEBUG_F_OSD | DEBUG_L2);

	int a;
	int b;
	int c;
	for(b=0;b<8;++b)
  403564:	9c 80 00 00 	l.addi r4,r0,0x0

	// Finally rotate it.
	for(i=0;i<64;i+=8)
	{
		unsigned char tmp[8];
		rotatechar(&titlebuffer[i],tmp);
  403568:	a8 42 0a 1c 	l.ori r2,r2,0xa1c
  40356c:	00 00 00 10 	l.j 4035ac <OsdSetTitle+0x1bc>
  403570:	e1 63 10 00 	l.add r11,r3,r2

  DEBUG_FUNC_OUT(DEBUG_F_OSD | DEBUG_L2);
}


void OsdSetTitle(char *s,int a)
  403574:	e1 8b 28 00 	l.add r12,r11,r5
	for(b=0;b<8;++b)
	{
		a=0;
		for(c=0;c<8;++c)
		{
			a<<=1;
  403578:	e0 c6 30 00 	l.add r6,r6,r6
			a|=(in[c]>>b)&1;
  40357c:	8d 8c 00 00 	l.lbz r12,0x0(r12)
  403580:	e1 8c 20 88 	l.sra r12,r12,r4
	int b;
	int c;
	for(b=0;b<8;++b)
	{
		a=0;
		for(c=0;c<8;++c)
  403584:	9c a5 00 01 	l.addi r5,r5,0x1
		{
			a<<=1;
			a|=(in[c]>>b)&1;
  403588:	a5 8c 00 01 	l.andi r12,r12,0x1
	int b;
	int c;
	for(b=0;b<8;++b)
	{
		a=0;
		for(c=0;c<8;++c)
  40358c:	bc 25 00 08 	l.sfnei r5,0x8
  403590:	13 ff ff f9 	l.bf 403574 <OsdSetTitle+0x184>
  403594:	e0 c6 60 04 	l.or r6,r6,r12

  DEBUG_FUNC_OUT(DEBUG_F_OSD | DEBUG_L2);
}


void OsdSetTitle(char *s,int a)
  403598:	e0 a7 20 00 	l.add r5,r7,r4
  DEBUG_FUNC_IN(DEBUG_F_OSD | DEBUG_L2);

	int a;
	int b;
	int c;
	for(b=0;b<8;++b)
  40359c:	9c 84 00 01 	l.addi r4,r4,0x1
  4035a0:	bc 04 00 08 	l.sfeqi r4,0x8
  4035a4:	10 00 00 05 	l.bf 4035b8 <OsdSetTitle+0x1c8>
  4035a8:	d8 05 30 00 	l.sb 0x0(r5),r6
	int c=(63-outp)/2;
	for(i=(63-c);i>=0;--i)
	{
		titlebuffer[i+c]=titlebuffer[i];
	}
	for(i=0;i<c;++i)
  4035ac:	9c a0 00 00 	l.addi r5,r0,0x0
  4035b0:	03 ff ff f1 	l.j 403574 <OsdSetTitle+0x184>
  4035b4:	a8 c5 00 00 	l.ori r6,r5,0x0

  DEBUG_FUNC_OUT(DEBUG_F_OSD | DEBUG_L2);
}


void OsdSetTitle(char *s,int a)
  4035b8:	18 40 00 42 	l.movhi r2,0x42
  DEBUG_FUNC_IN(DEBUG_F_OSD | DEBUG_L2);

	int a;
	int b;
	int c;
	for(b=0;b<8;++b)
  4035bc:	a8 81 00 00 	l.ori r4,r1,0x0

  DEBUG_FUNC_OUT(DEBUG_F_OSD | DEBUG_L2);
}


void OsdSetTitle(char *s,int a)
  4035c0:	a8 42 0a 1c 	l.ori r2,r2,0xa1c
  4035c4:	e0 a3 10 00 	l.add r5,r3,r2
	{
		unsigned char tmp[8];
		rotatechar(&titlebuffer[i],tmp);
		for(c=0;c<8;++c)
		{
			titlebuffer[i+c]=tmp[c];
  4035c8:	8c 44 00 00 	l.lbz r2,0x0(r4)
  4035cc:	9c 84 00 01 	l.addi r4,r4,0x1
  4035d0:	d8 05 10 00 	l.sb 0x0(r5),r2
	// Finally rotate it.
	for(i=0;i<64;i+=8)
	{
		unsigned char tmp[8];
		rotatechar(&titlebuffer[i],tmp);
		for(c=0;c<8;++c)
  4035d4:	e4 24 40 00 	l.sfne r4,r8
  4035d8:	13 ff ff fc 	l.bf 4035c8 <OsdSetTitle+0x1d8>
  4035dc:	9c a5 00 01 	l.addi r5,r5,0x1
	}
	for(i=0;i<c;++i)
		titlebuffer[i]=0;

	// Finally rotate it.
	for(i=0;i<64;i+=8)
  4035e0:	9c 63 00 08 	l.addi r3,r3,0x8
  4035e4:	bc 23 00 40 	l.sfnei r3,0x40
  4035e8:	13 ff ff de 	l.bf 403560 <OsdSetTitle+0x170>
  4035ec:	15 00 00 00 	l.nop 0x0
			titlebuffer[i+c]=tmp[c];
		}
	}

  DEBUG_FUNC_OUT(DEBUG_F_OSD | DEBUG_L2);
}
  4035f0:	9c 21 00 0c 	l.addi r1,r1,0xc
  4035f4:	44 00 48 00 	l.jr r9
  4035f8:	84 41 ff fc 	l.lwz r2,0xfffffffc(r1)

004035fc <OsdWriteOffset>:
    unsigned short i;
    unsigned char b;
    const unsigned char *p;
	unsigned char stipplemask=0xff;
	int linelimit=OSDLINELEN;
	int arrowmask=arrow;
  4035fc:	19 00 00 42 	l.movhi r8,0x42
}


// write a null-terminated string <s> to the OSD buffer starting at line <n>
void OsdWriteOffset(unsigned char n, char *s, unsigned char invert, unsigned char stipple,char offset)
{
  403600:	d7 e1 17 d8 	l.sw 0xffffffd8(r1),r2
  403604:	d7 e1 77 dc 	l.sw 0xffffffdc(r1),r14
  403608:	d7 e1 87 e0 	l.sw 0xffffffe0(r1),r16
  40360c:	d7 e1 97 e4 	l.sw 0xffffffe4(r1),r18
  403610:	d7 e1 a7 e8 	l.sw 0xffffffe8(r1),r20
  403614:	d7 e1 b7 ec 	l.sw 0xffffffec(r1),r22
  403618:	d7 e1 c7 f0 	l.sw 0xfffffff0(r1),r24
  40361c:	d7 e1 d7 f4 	l.sw 0xfffffff4(r1),r26
  403620:	d7 e1 e7 f8 	l.sw 0xfffffff8(r1),r28
  403624:	d7 e1 f7 fc 	l.sw 0xfffffffc(r1),r30
    unsigned short i;
    unsigned char b;
    const unsigned char *p;
	unsigned char stipplemask=0xff;
	int linelimit=OSDLINELEN;
	int arrowmask=arrow;
  403628:	a9 08 0a 5c 	l.ori r8,r8,0xa5c
}


// write a null-terminated string <s> to the OSD buffer starting at line <n>
void OsdWriteOffset(unsigned char n, char *s, unsigned char invert, unsigned char stipple,char offset)
{
  40362c:	9c 21 ff d4 	l.addi r1,r1,0xffffffd4
    unsigned short i;
    unsigned char b;
    const unsigned char *p;
	unsigned char stipplemask=0xff;
	int linelimit=OSDLINELEN;
	int arrowmask=arrow;
  403630:	86 e8 00 00 	l.lwz r23,0x0(r8)
	if(n==7 && (arrow & OSD_ARROW_RIGHT))
  403634:	bc 23 00 07 	l.sfnei r3,0x7
  403638:	10 00 00 07 	l.bf 403654 <OsdWriteOffset+0x58>
  40363c:	9f 20 01 00 	l.addi r25,r0,0x100
  403640:	a5 17 00 02 	l.andi r8,r23,0x2
  403644:	bc 08 00 00 	l.sfeqi r8,0x0
  403648:	10 00 00 04 	l.bf 403658 <OsdWriteOffset+0x5c>
  40364c:	bc 06 00 00 	l.sfeqi r6,0x0
		linelimit-=22;
  403650:	9f 20 00 ea 	l.addi r25,r0,0xea

	if(stipple)
  403654:	bc 06 00 00 	l.sfeqi r6,0x0
  403658:	10 00 00 04 	l.bf 403668 <OsdWriteOffset+0x6c>
  40365c:	9e a0 00 ff 	l.addi r21,r0,0xff
	{
		stipplemask=0x55;
  403660:	9e a0 00 55 	l.addi r21,r0,0x55
		stipple=0xff;
  403664:	9c c0 00 ff 	l.addi r6,r0,0xff
	}
	else
		stipple=0;

    // select OSD SPI device
    EnableOsd();
  403668:	19 00 00 80 	l.movhi r8,0x80
  40366c:	9d a0 00 44 	l.addi r13,r0,0x44
  403670:	a9 88 00 20 	l.ori r12,r8,0x20
    // select buffer and line to write to
//    if (invert)
//        SPI(OSDCMDWRITE | 0x10 | n);
//    else
        //SPI(OSDCMDWRITE | n);
        SPI(OSD_CMD_OSD_WR);
  403674:	a9 08 00 24 	l.ori r8,r8,0x24
	}
	else
		stipple=0;

    // select OSD SPI device
    EnableOsd();
  403678:	d4 0c 68 00 	l.sw 0x0(r12),r13
    // select buffer and line to write to
//    if (invert)
//        SPI(OSDCMDWRITE | 0x10 | n);
//    else
        //SPI(OSDCMDWRITE | n);
        SPI(OSD_CMD_OSD_WR);
  40367c:	9d 80 00 0c 	l.addi r12,r0,0xc
        SPI(0x00); SPI(0x00); SPI(0x00); SPI(n);
  403680:	9c 40 00 00 	l.addi r2,r0,0x0
    // select buffer and line to write to
//    if (invert)
//        SPI(OSDCMDWRITE | 0x10 | n);
//    else
        //SPI(OSDCMDWRITE | n);
        SPI(OSD_CMD_OSD_WR);
  403684:	d4 08 60 00 	l.sw 0x0(r8),r12
        SPI(0x00); SPI(0x00); SPI(0x00); SPI(n);

	if(invert)
  403688:	e4 05 10 00 	l.sfeq r5,r2
    // select buffer and line to write to
//    if (invert)
//        SPI(OSDCMDWRITE | 0x10 | n);
//    else
        //SPI(OSDCMDWRITE | n);
        SPI(OSD_CMD_OSD_WR);
  40368c:	85 88 00 00 	l.lwz r12,0x0(r8)
        SPI(0x00); SPI(0x00); SPI(0x00); SPI(n);
  403690:	d4 08 10 00 	l.sw 0x0(r8),r2
  403694:	85 88 00 00 	l.lwz r12,0x0(r8)
  403698:	d4 08 10 00 	l.sw 0x0(r8),r2
  40369c:	85 88 00 00 	l.lwz r12,0x0(r8)
  4036a0:	d4 08 10 00 	l.sw 0x0(r8),r2
  4036a4:	85 88 00 00 	l.lwz r12,0x0(r8)
  4036a8:	d4 08 18 00 	l.sw 0x0(r8),r3
  4036ac:	85 08 00 00 	l.lwz r8,0x0(r8)

	if(invert)
  4036b0:	10 00 00 03 	l.bf 4036bc <OsdWriteOffset+0xc0>
  4036b4:	19 00 00 80 	l.movhi r8,0x80
		invert=255;
  4036b8:	9c a0 00 ff 	l.addi r5,r0,0xff
		else if(n==7 && (arrowmask & OSD_ARROW_LEFT))	// Draw initial arrow
		{
			SPI(0);
			SPI(0);
			SPI(0);
		    p = &charfont[0x10][0];
  4036bc:	1a 60 00 41 	l.movhi r19,0x41
    while (1)
    {
		if(i==0)	// Render sidestripe
		{
	        p = &titlebuffer[(7-n)*8];
			SPI(0xff);
  4036c0:	aa 28 00 24 	l.ori r17,r8,0x24
		else if(n==7 && (arrowmask & OSD_ARROW_LEFT))	// Draw initial arrow
		{
			SPI(0);
			SPI(0);
			SPI(0);
		    p = &charfont[0x10][0];
  4036c4:	aa 73 9b bc 	l.ori r19,r19,0x9bbc
		    {
		        // increment line counter
		        if (++n >= linelimit)
		            n = 0;
		        // send new line number to OSD
		        DisableOsd();
  4036c8:	a8 48 00 20 	l.ori r2,r8,0x20
		        //SPI(OSDCMDWRITE | n);
            SPI(OSD_CMD_OSD_WR);
            SPI(0x00); SPI(0x00); SPI(0x00); SPI(n);

		    }
			else if(i<(linelimit-8)) // normal character
  4036cc:	9d 19 ff f8 	l.addi r8,r25,0xfffffff8
        SPI(0x00); SPI(0x00); SPI(0x00); SPI(n);

	if(invert)
		invert=255;

    i = 0;
  4036d0:	9d 80 00 00 	l.addi r12,r0,0x0
    while (1)
    {
		if(i==0)	// Render sidestripe
		{
	        p = &titlebuffer[(7-n)*8];
			SPI(0xff);
  4036d4:	9f 60 00 ff 	l.addi r27,r0,0xff
		        //SPI(OSDCMDWRITE | n);
            SPI(OSD_CMD_OSD_WR);
            SPI(0x00); SPI(0x00); SPI(0x00); SPI(n);

		    }
			else if(i<(linelimit-8)) // normal character
  4036d8:	d4 01 40 00 	l.sw 0x0(r1),r8
		{
			SPI(0);
			SPI(0);
			SPI(0);
		    p = &charfont[0x10][0];
	        SPI(*p++<<offset); SPI(*p++<<offset); SPI(*p++<<offset); SPI(*p++<<offset);
  4036dc:	9f d3 00 03 	l.addi r30,r19,0x3
  4036e0:	9f 93 00 04 	l.addi r28,r19,0x4
	        SPI(*p++<<offset); SPI(*p++<<offset); SPI(*p++<<offset); SPI(*p++<<offset);
  4036e4:	9f 53 00 05 	l.addi r26,r19,0x5
  4036e8:	9f f3 00 06 	l.addi r31,r19,0x6
		    p = &charfont[0x14][0];
  4036ec:	9f 13 00 20 	l.addi r24,r19,0x20
	        SPI(*p++<<offset); SPI(*p++<<offset); SPI(*p++<<offset); SPI(*p++<<offset);
  4036f0:	9e d3 00 21 	l.addi r22,r19,0x21
  4036f4:	9e 93 00 22 	l.addi r20,r19,0x22
  4036f8:	9e 53 00 23 	l.addi r18,r19,0x23
  4036fc:	9e 13 00 24 	l.addi r16,r19,0x24
	        SPI(*p++<<offset); SPI(*p++<<offset); SPI(*p++<<offset); SPI(*p++<<offset);
  403700:	9d d3 00 25 	l.addi r14,r19,0x25
  403704:	9f b3 00 26 	l.addi r29,r19,0x26

    i = 0;
    // send all characters in string to OSD
    while (1)
    {
		if(i==0)	// Render sidestripe
  403708:	bc 2c 00 00 	l.sfnei r12,0x0
  40370c:	10 00 00 6d 	l.bf 4038c0 <OsdWriteOffset+0x2c4>
  403710:	bc 23 00 07 	l.sfnei r3,0x7
		{
	        p = &titlebuffer[(7-n)*8];
  403714:	9d 60 00 07 	l.addi r11,r0,0x7
			SPI(0xff);
  403718:	d4 11 d8 00 	l.sw 0x0(r17),r27
    // send all characters in string to OSD
    while (1)
    {
		if(i==0)	// Render sidestripe
		{
	        p = &titlebuffer[(7-n)*8];
  40371c:	e1 0b 18 02 	l.sub r8,r11,r3
  403720:	19 60 00 42 	l.movhi r11,0x42
  403724:	b9 08 00 03 	l.slli r8,r8,0x3
  403728:	a9 6b 0a 1c 	l.ori r11,r11,0xa1c
  40372c:	e1 a8 58 00 	l.add r13,r8,r11
			SPI(0xff);
  403730:	85 71 00 00 	l.lwz r11,0x0(r17)
			SPI(0xff);
  403734:	d4 11 d8 00 	l.sw 0x0(r17),r27
	        SPI(255^*p); SPI(255^*p++);
  403738:	9d ed 00 01 	l.addi r15,r13,0x1
  40373c:	8d 0d 00 00 	l.lbz r8,0x0(r13)
  403740:	ad 08 00 ff 	l.xori r8,r8,0xff
    {
		if(i==0)	// Render sidestripe
		{
	        p = &titlebuffer[(7-n)*8];
			SPI(0xff);
			SPI(0xff);
  403744:	85 71 00 00 	l.lwz r11,0x0(r17)
	        SPI(255^*p); SPI(255^*p++);
  403748:	a5 08 00 ff 	l.andi r8,r8,0xff
  40374c:	d4 11 40 00 	l.sw 0x0(r17),r8
  403750:	8d 0d 00 00 	l.lbz r8,0x0(r13)
  403754:	ad 08 00 ff 	l.xori r8,r8,0xff
  403758:	85 71 00 00 	l.lwz r11,0x0(r17)
  40375c:	a5 08 00 ff 	l.andi r8,r8,0xff
  403760:	d4 11 40 00 	l.sw 0x0(r17),r8
	        SPI(255^*p); SPI(255^*p++);
  403764:	8d 0f 00 00 	l.lbz r8,0x0(r15)
  403768:	ad 08 00 ff 	l.xori r8,r8,0xff
		if(i==0)	// Render sidestripe
		{
	        p = &titlebuffer[(7-n)*8];
			SPI(0xff);
			SPI(0xff);
	        SPI(255^*p); SPI(255^*p++);
  40376c:	85 71 00 00 	l.lwz r11,0x0(r17)
	        SPI(255^*p); SPI(255^*p++);
  403770:	a5 08 00 ff 	l.andi r8,r8,0xff
  403774:	d4 11 40 00 	l.sw 0x0(r17),r8
  403778:	8d 0f 00 00 	l.lbz r8,0x0(r15)
  40377c:	ad 08 00 ff 	l.xori r8,r8,0xff
  403780:	85 71 00 00 	l.lwz r11,0x0(r17)
  403784:	a5 08 00 ff 	l.andi r8,r8,0xff
  403788:	9d ed 00 02 	l.addi r15,r13,0x2
  40378c:	d4 11 40 00 	l.sw 0x0(r17),r8
	        SPI(255^*p); SPI(255^*p++);
  403790:	8d 0f 00 00 	l.lbz r8,0x0(r15)
  403794:	ad 08 00 ff 	l.xori r8,r8,0xff
		{
	        p = &titlebuffer[(7-n)*8];
			SPI(0xff);
			SPI(0xff);
	        SPI(255^*p); SPI(255^*p++);
	        SPI(255^*p); SPI(255^*p++);
  403798:	85 71 00 00 	l.lwz r11,0x0(r17)
	        SPI(255^*p); SPI(255^*p++);
  40379c:	a5 08 00 ff 	l.andi r8,r8,0xff
  4037a0:	d4 11 40 00 	l.sw 0x0(r17),r8
  4037a4:	8d 0f 00 00 	l.lbz r8,0x0(r15)
  4037a8:	ad 08 00 ff 	l.xori r8,r8,0xff
  4037ac:	85 71 00 00 	l.lwz r11,0x0(r17)
  4037b0:	a5 08 00 ff 	l.andi r8,r8,0xff
  4037b4:	9d ed 00 03 	l.addi r15,r13,0x3
  4037b8:	d4 11 40 00 	l.sw 0x0(r17),r8
	        SPI(255^*p); SPI(255^*p++);
  4037bc:	8d 0f 00 00 	l.lbz r8,0x0(r15)
  4037c0:	ad 08 00 ff 	l.xori r8,r8,0xff
	        p = &titlebuffer[(7-n)*8];
			SPI(0xff);
			SPI(0xff);
	        SPI(255^*p); SPI(255^*p++);
	        SPI(255^*p); SPI(255^*p++);
	        SPI(255^*p); SPI(255^*p++);
  4037c4:	85 71 00 00 	l.lwz r11,0x0(r17)
	        SPI(255^*p); SPI(255^*p++);
  4037c8:	a5 08 00 ff 	l.andi r8,r8,0xff
  4037cc:	d4 11 40 00 	l.sw 0x0(r17),r8
  4037d0:	8d 0f 00 00 	l.lbz r8,0x0(r15)
  4037d4:	ad 08 00 ff 	l.xori r8,r8,0xff
  4037d8:	85 71 00 00 	l.lwz r11,0x0(r17)
  4037dc:	a5 08 00 ff 	l.andi r8,r8,0xff
  4037e0:	9d ed 00 04 	l.addi r15,r13,0x4
  4037e4:	d4 11 40 00 	l.sw 0x0(r17),r8
	        SPI(255^*p); SPI(255^*p++);
  4037e8:	8d 0f 00 00 	l.lbz r8,0x0(r15)
  4037ec:	ad 08 00 ff 	l.xori r8,r8,0xff
			SPI(0xff);
			SPI(0xff);
	        SPI(255^*p); SPI(255^*p++);
	        SPI(255^*p); SPI(255^*p++);
	        SPI(255^*p); SPI(255^*p++);
	        SPI(255^*p); SPI(255^*p++);
  4037f0:	85 71 00 00 	l.lwz r11,0x0(r17)
	        SPI(255^*p); SPI(255^*p++);
  4037f4:	a5 08 00 ff 	l.andi r8,r8,0xff
  4037f8:	d4 11 40 00 	l.sw 0x0(r17),r8
  4037fc:	8d 0f 00 00 	l.lbz r8,0x0(r15)
  403800:	ad 08 00 ff 	l.xori r8,r8,0xff
  403804:	9d ed 00 05 	l.addi r15,r13,0x5
  403808:	a5 08 00 ff 	l.andi r8,r8,0xff
  40380c:	85 71 00 00 	l.lwz r11,0x0(r17)
  403810:	d4 11 40 00 	l.sw 0x0(r17),r8
	        SPI(255^*p); SPI(255^*p++);
  403814:	8d 0f 00 00 	l.lbz r8,0x0(r15)
  403818:	ad 08 00 ff 	l.xori r8,r8,0xff
			SPI(0xff);
	        SPI(255^*p); SPI(255^*p++);
	        SPI(255^*p); SPI(255^*p++);
	        SPI(255^*p); SPI(255^*p++);
	        SPI(255^*p); SPI(255^*p++);
	        SPI(255^*p); SPI(255^*p++);
  40381c:	85 71 00 00 	l.lwz r11,0x0(r17)
	        SPI(255^*p); SPI(255^*p++);
  403820:	a5 08 00 ff 	l.andi r8,r8,0xff
  403824:	d4 11 40 00 	l.sw 0x0(r17),r8
  403828:	8d 0f 00 00 	l.lbz r8,0x0(r15)
  40382c:	ad 08 00 ff 	l.xori r8,r8,0xff
  403830:	85 71 00 00 	l.lwz r11,0x0(r17)
  403834:	a5 08 00 ff 	l.andi r8,r8,0xff
  403838:	9d ed 00 06 	l.addi r15,r13,0x6
  40383c:	d4 11 40 00 	l.sw 0x0(r17),r8
	        SPI(255^*p); SPI(255^*p++);
  403840:	9d ad 00 07 	l.addi r13,r13,0x7
  403844:	8d 0f 00 00 	l.lbz r8,0x0(r15)
  403848:	ad 08 00 ff 	l.xori r8,r8,0xff
	        SPI(255^*p); SPI(255^*p++);
	        SPI(255^*p); SPI(255^*p++);
	        SPI(255^*p); SPI(255^*p++);
	        SPI(255^*p); SPI(255^*p++);
	        SPI(255^*p); SPI(255^*p++);
	        SPI(255^*p); SPI(255^*p++);
  40384c:	85 71 00 00 	l.lwz r11,0x0(r17)
	        SPI(255^*p); SPI(255^*p++);
  403850:	a5 08 00 ff 	l.andi r8,r8,0xff
  403854:	d4 11 40 00 	l.sw 0x0(r17),r8
  403858:	8d 0f 00 00 	l.lbz r8,0x0(r15)
  40385c:	ad 08 00 ff 	l.xori r8,r8,0xff
  403860:	85 71 00 00 	l.lwz r11,0x0(r17)
  403864:	a5 08 00 ff 	l.andi r8,r8,0xff
  403868:	d4 11 40 00 	l.sw 0x0(r17),r8
	        SPI(255^*p); SPI(255^*p++);
  40386c:	8d 0d 00 00 	l.lbz r8,0x0(r13)
  403870:	ad 08 00 ff 	l.xori r8,r8,0xff
	        SPI(255^*p); SPI(255^*p++);
	        SPI(255^*p); SPI(255^*p++);
	        SPI(255^*p); SPI(255^*p++);
	        SPI(255^*p); SPI(255^*p++);
	        SPI(255^*p); SPI(255^*p++);
	        SPI(255^*p); SPI(255^*p++);
  403874:	85 71 00 00 	l.lwz r11,0x0(r17)
	        SPI(255^*p); SPI(255^*p++);
  403878:	a5 08 00 ff 	l.andi r8,r8,0xff
  40387c:	d4 11 40 00 	l.sw 0x0(r17),r8
  403880:	8d 0d 00 00 	l.lbz r8,0x0(r13)
  403884:	ad 08 00 ff 	l.xori r8,r8,0xff
  403888:	85 71 00 00 	l.lwz r11,0x0(r17)
  40388c:	a5 08 00 ff 	l.andi r8,r8,0xff
  403890:	d4 11 40 00 	l.sw 0x0(r17),r8
  403894:	85 11 00 00 	l.lwz r8,0x0(r17)
			SPI(0xff);
  403898:	d4 11 d8 00 	l.sw 0x0(r17),r27
  40389c:	85 11 00 00 	l.lwz r8,0x0(r17)
			SPI(0xff);
  4038a0:	d4 11 d8 00 	l.sw 0x0(r17),r27
  4038a4:	85 11 00 00 	l.lwz r8,0x0(r17)
			SPI(0x00);
  4038a8:	d4 11 60 00 	l.sw 0x0(r17),r12
  4038ac:	85 11 00 00 	l.lwz r8,0x0(r17)
			SPI(0x00);
  4038b0:	d4 11 60 00 	l.sw 0x0(r17),r12
	        i += 22;
  4038b4:	9d 80 00 16 	l.addi r12,r0,0x16
	        SPI(255^*p); SPI(255^*p++);
	        SPI(255^*p); SPI(255^*p++);
			SPI(0xff);
			SPI(0xff);
			SPI(0x00);
			SPI(0x00);
  4038b8:	85 11 00 00 	l.lwz r8,0x0(r17)
	        i += 22;
		}
		else if(n==7 && (arrowmask & OSD_ARROW_LEFT))	// Draw initial arrow
  4038bc:	bc 23 00 07 	l.sfnei r3,0x7
  4038c0:	10 00 00 6f 	l.bf 403a7c <OsdWriteOffset+0x480>
  4038c4:	a5 17 00 01 	l.andi r8,r23,0x1
  4038c8:	bc 08 00 00 	l.sfeqi r8,0x0
  4038cc:	10 00 00 6c 	l.bf 403a7c <OsdWriteOffset+0x480>
  4038d0:	9d 00 00 00 	l.addi r8,r0,0x0
		{
			SPI(0);
			SPI(0);
  4038d4:	9d 60 00 00 	l.addi r11,r0,0x0
			SPI(0x00);
	        i += 22;
		}
		else if(n==7 && (arrowmask & OSD_ARROW_LEFT))	// Draw initial arrow
		{
			SPI(0);
  4038d8:	d4 11 40 00 	l.sw 0x0(r17),r8
			SPI(0);
			SPI(0);
			SPI(0);
			SPI(invert);
			SPI(invert);
			i+=24;
  4038dc:	9d 8c 00 18 	l.addi r12,r12,0x18
			SPI(0x00);
	        i += 22;
		}
		else if(n==7 && (arrowmask & OSD_ARROW_LEFT))	// Draw initial arrow
		{
			SPI(0);
  4038e0:	85 11 00 00 	l.lwz r8,0x0(r17)
			SPI(0);
  4038e4:	d4 11 58 00 	l.sw 0x0(r17),r11
			SPI(0);
			SPI(0);
			SPI(0);
			SPI(invert);
			SPI(invert);
			i+=24;
  4038e8:	a5 8c ff ff 	l.andi r12,r12,0xffff
	        i += 22;
		}
		else if(n==7 && (arrowmask & OSD_ARROW_LEFT))	// Draw initial arrow
		{
			SPI(0);
			SPI(0);
  4038ec:	85 11 00 00 	l.lwz r8,0x0(r17)
			SPI(0);
  4038f0:	d4 11 58 00 	l.sw 0x0(r17),r11
		    p = &charfont[0x10][0];
	        SPI(*p++<<offset); SPI(*p++<<offset); SPI(*p++<<offset); SPI(*p++<<offset);
  4038f4:	19 60 00 41 	l.movhi r11,0x41
		}
		else if(n==7 && (arrowmask & OSD_ARROW_LEFT))	// Draw initial arrow
		{
			SPI(0);
			SPI(0);
			SPI(0);
  4038f8:	85 11 00 00 	l.lwz r8,0x0(r17)
		    p = &charfont[0x10][0];
	        SPI(*p++<<offset); SPI(*p++<<offset); SPI(*p++<<offset); SPI(*p++<<offset);
  4038fc:	8d 13 00 00 	l.lbz r8,0x0(r19)
  403900:	e1 08 38 08 	l.sll r8,r8,r7
  403904:	a9 6b 9b bd 	l.ori r11,r11,0x9bbd
  403908:	d4 11 40 00 	l.sw 0x0(r17),r8
  40390c:	85 11 00 00 	l.lwz r8,0x0(r17)
  403910:	8d 0b 00 00 	l.lbz r8,0x0(r11)
  403914:	e1 08 38 08 	l.sll r8,r8,r7
  403918:	19 60 00 41 	l.movhi r11,0x41
  40391c:	d4 11 40 00 	l.sw 0x0(r17),r8
  403920:	a9 6b 9b be 	l.ori r11,r11,0x9bbe
  403924:	85 11 00 00 	l.lwz r8,0x0(r17)
  403928:	8d 0b 00 00 	l.lbz r8,0x0(r11)
  40392c:	e1 08 38 08 	l.sll r8,r8,r7
	        SPI(*p++<<offset); SPI(*p++<<offset); SPI(*p++<<offset); SPI(*p++<<offset);
		    p = &charfont[0x14][0];
	        SPI(*p++<<offset); SPI(*p++<<offset); SPI(*p++<<offset); SPI(*p++<<offset);
	        SPI(*p++<<offset); SPI(*p++<<offset); SPI(*p++<<offset); SPI(*p++<<offset);
			SPI(0);
			SPI(0);
  403930:	9d 60 00 00 	l.addi r11,r0,0x0
		{
			SPI(0);
			SPI(0);
			SPI(0);
		    p = &charfont[0x10][0];
	        SPI(*p++<<offset); SPI(*p++<<offset); SPI(*p++<<offset); SPI(*p++<<offset);
  403934:	d4 11 40 00 	l.sw 0x0(r17),r8
  403938:	85 11 00 00 	l.lwz r8,0x0(r17)
  40393c:	8d 1e 00 00 	l.lbz r8,0x0(r30)
  403940:	e1 08 38 08 	l.sll r8,r8,r7
  403944:	d4 11 40 00 	l.sw 0x0(r17),r8
  403948:	85 11 00 00 	l.lwz r8,0x0(r17)
	        SPI(*p++<<offset); SPI(*p++<<offset); SPI(*p++<<offset); SPI(*p++<<offset);
  40394c:	8d 1c 00 00 	l.lbz r8,0x0(r28)
  403950:	e1 08 38 08 	l.sll r8,r8,r7
  403954:	d4 11 40 00 	l.sw 0x0(r17),r8
  403958:	85 11 00 00 	l.lwz r8,0x0(r17)
  40395c:	8d 1a 00 00 	l.lbz r8,0x0(r26)
  403960:	e1 08 38 08 	l.sll r8,r8,r7
  403964:	d4 11 40 00 	l.sw 0x0(r17),r8
  403968:	85 11 00 00 	l.lwz r8,0x0(r17)
  40396c:	8d 1f 00 00 	l.lbz r8,0x0(r31)
  403970:	e1 08 38 08 	l.sll r8,r8,r7
  403974:	d4 11 40 00 	l.sw 0x0(r17),r8
  403978:	85 11 00 00 	l.lwz r8,0x0(r17)
  40397c:	8d 1f 00 01 	l.lbz r8,0x1(r31)
  403980:	e1 08 38 08 	l.sll r8,r8,r7
  403984:	d4 11 40 00 	l.sw 0x0(r17),r8
  403988:	85 11 00 00 	l.lwz r8,0x0(r17)
		    p = &charfont[0x14][0];
	        SPI(*p++<<offset); SPI(*p++<<offset); SPI(*p++<<offset); SPI(*p++<<offset);
  40398c:	8d 18 00 00 	l.lbz r8,0x0(r24)
  403990:	e1 08 38 08 	l.sll r8,r8,r7
  403994:	d4 11 40 00 	l.sw 0x0(r17),r8
  403998:	85 11 00 00 	l.lwz r8,0x0(r17)
  40399c:	8d 16 00 00 	l.lbz r8,0x0(r22)
  4039a0:	e1 08 38 08 	l.sll r8,r8,r7
  4039a4:	d4 11 40 00 	l.sw 0x0(r17),r8
  4039a8:	85 11 00 00 	l.lwz r8,0x0(r17)
  4039ac:	8d 14 00 00 	l.lbz r8,0x0(r20)
  4039b0:	e1 08 38 08 	l.sll r8,r8,r7
  4039b4:	d4 11 40 00 	l.sw 0x0(r17),r8
  4039b8:	85 11 00 00 	l.lwz r8,0x0(r17)
  4039bc:	8d 12 00 00 	l.lbz r8,0x0(r18)
  4039c0:	e1 08 38 08 	l.sll r8,r8,r7
  4039c4:	d4 11 40 00 	l.sw 0x0(r17),r8
  4039c8:	85 11 00 00 	l.lwz r8,0x0(r17)
	        SPI(*p++<<offset); SPI(*p++<<offset); SPI(*p++<<offset); SPI(*p++<<offset);
  4039cc:	8d 10 00 00 	l.lbz r8,0x0(r16)
  4039d0:	e1 08 38 08 	l.sll r8,r8,r7
  4039d4:	d4 11 40 00 	l.sw 0x0(r17),r8
  4039d8:	85 11 00 00 	l.lwz r8,0x0(r17)
  4039dc:	8d 0e 00 00 	l.lbz r8,0x0(r14)
  4039e0:	e1 08 38 08 	l.sll r8,r8,r7
  4039e4:	d4 11 40 00 	l.sw 0x0(r17),r8
  4039e8:	85 11 00 00 	l.lwz r8,0x0(r17)
  4039ec:	8d 1d 00 00 	l.lbz r8,0x0(r29)
  4039f0:	e1 08 38 08 	l.sll r8,r8,r7
  4039f4:	d4 11 40 00 	l.sw 0x0(r17),r8
  4039f8:	85 11 00 00 	l.lwz r8,0x0(r17)
  4039fc:	8d 1d 00 01 	l.lbz r8,0x1(r29)
  403a00:	e1 08 38 08 	l.sll r8,r8,r7
  403a04:	d4 11 40 00 	l.sw 0x0(r17),r8
  403a08:	85 11 00 00 	l.lwz r8,0x0(r17)
			SPI(0);
  403a0c:	9d 00 00 00 	l.addi r8,r0,0x0
  403a10:	d4 11 40 00 	l.sw 0x0(r17),r8
  403a14:	85 11 00 00 	l.lwz r8,0x0(r17)
			SPI(0);
  403a18:	d4 11 58 00 	l.sw 0x0(r17),r11
  403a1c:	85 11 00 00 	l.lwz r8,0x0(r17)
			SPI(0);
  403a20:	d4 11 58 00 	l.sw 0x0(r17),r11
  403a24:	85 11 00 00 	l.lwz r8,0x0(r17)
			SPI(invert);
  403a28:	d4 11 28 00 	l.sw 0x0(r17),r5
  403a2c:	85 11 00 00 	l.lwz r8,0x0(r17)
			SPI(invert);
  403a30:	d4 11 28 00 	l.sw 0x0(r17),r5
  403a34:	85 11 00 00 	l.lwz r8,0x0(r17)
			i+=24;
			arrowmask&=~OSD_ARROW_LEFT;
  403a38:	9d 00 ff fe 	l.addi r8,r0,0xfffffffe
  403a3c:	e2 f7 40 03 	l.and r23,r23,r8
			if(*s++ == 0) break;	// Skip 3 characters, to keep alignent the same.
  403a40:	91 04 00 00 	l.lbs r8,0x0(r4)
  403a44:	e4 08 58 00 	l.sfeq r8,r11
  403a48:	10 00 00 7d 	l.bf 403c3c <OsdWriteOffset+0x640>
  403a4c:	15 00 00 00 	l.nop 0x0
			if(*s++ == 0) break;
  403a50:	91 04 00 01 	l.lbs r8,0x1(r4)
  403a54:	e4 28 58 00 	l.sfne r8,r11
  403a58:	0c 00 00 79 	l.bnf 403c3c <OsdWriteOffset+0x640>
  403a5c:	15 00 00 00 	l.nop 0x0
			if(*s++ == 0) break;
  403a60:	91 04 00 02 	l.lbs r8,0x2(r4)
  403a64:	e4 08 58 00 	l.sfeq r8,r11
  403a68:	0f ff ff 28 	l.bnf 403708 <OsdWriteOffset+0x10c>
  403a6c:	9c 84 00 03 	l.addi r4,r4,0x3
  403a70:	9c 84 ff fd 	l.addi r4,r4,0xfffffffd
		        i += 8;
		    }
		}
    }
    for (; i < linelimit; i++) // clear end of line
       SPI(invert);
  403a74:	00 00 00 73 	l.j 403c40 <OsdWriteOffset+0x644>
  403a78:	18 80 00 80 	l.movhi r4,0x80
			if(*s++ == 0) break;
			if(*s++ == 0) break;
		}
		else
		{
		    b = *s++;
  403a7c:	8d 04 00 00 	l.lbz r8,0x0(r4)

		    if (b == 0) // end of string
  403a80:	bc 08 00 00 	l.sfeqi r8,0x0
  403a84:	10 00 00 6e 	l.bf 403c3c <OsdWriteOffset+0x640>
  403a88:	9c 84 00 01 	l.addi r4,r4,0x1
		        break;

		    else if (b == 0x0d || b == 0x0a) // cariage return / linefeed, go to next line
  403a8c:	ad 68 00 0a 	l.xori r11,r8,0xa
  403a90:	9d 6b ff ff 	l.addi r11,r11,0xffffffff
  403a94:	bd 8b 00 00 	l.sfltsi r11,0x0
  403a98:	10 00 00 06 	l.bf 403ab0 <OsdWriteOffset+0x4b4>
  403a9c:	ad 68 00 0d 	l.xori r11,r8,0xd
  403aa0:	9d 6b ff ff 	l.addi r11,r11,0xffffffff
  403aa4:	bd 6b 00 00 	l.sfgesi r11,0x0
  403aa8:	10 00 00 19 	l.bf 403b0c <OsdWriteOffset+0x510>
  403aac:	85 61 00 00 	l.lwz r11,0x0(r1)
		    {
		        // increment line counter
		        if (++n >= linelimit)
  403ab0:	9c 63 00 01 	l.addi r3,r3,0x1
  403ab4:	a4 63 00 ff 	l.andi r3,r3,0xff
  403ab8:	e5 63 c8 00 	l.sfges r3,r25
  403abc:	0c 00 00 03 	l.bnf 403ac8 <OsdWriteOffset+0x4cc>
  403ac0:	9d 60 00 40 	l.addi r11,r0,0x40
		            n = 0;
  403ac4:	9c 60 00 00 	l.addi r3,r0,0x0
		        // send new line number to OSD
		        DisableOsd();
		        EnableOsd();
  403ac8:	9d 00 00 44 	l.addi r8,r0,0x44
		    {
		        // increment line counter
		        if (++n >= linelimit)
		            n = 0;
		        // send new line number to OSD
		        DisableOsd();
  403acc:	d4 02 58 00 	l.sw 0x0(r2),r11
		        EnableOsd();
  403ad0:	d4 02 40 00 	l.sw 0x0(r2),r8
		        //SPI(OSDCMDWRITE | n);
            SPI(OSD_CMD_OSD_WR);
  403ad4:	9d 00 00 0c 	l.addi r8,r0,0xc
            SPI(0x00); SPI(0x00); SPI(0x00); SPI(n);
  403ad8:	9d 60 00 00 	l.addi r11,r0,0x0
		            n = 0;
		        // send new line number to OSD
		        DisableOsd();
		        EnableOsd();
		        //SPI(OSDCMDWRITE | n);
            SPI(OSD_CMD_OSD_WR);
  403adc:	d4 11 40 00 	l.sw 0x0(r17),r8
  403ae0:	85 11 00 00 	l.lwz r8,0x0(r17)
            SPI(0x00); SPI(0x00); SPI(0x00); SPI(n);
  403ae4:	d4 11 58 00 	l.sw 0x0(r17),r11
  403ae8:	85 11 00 00 	l.lwz r8,0x0(r17)
  403aec:	d4 11 58 00 	l.sw 0x0(r17),r11
  403af0:	85 11 00 00 	l.lwz r8,0x0(r17)
  403af4:	d4 11 58 00 	l.sw 0x0(r17),r11
  403af8:	85 11 00 00 	l.lwz r8,0x0(r17)
  403afc:	d4 11 18 00 	l.sw 0x0(r17),r3
  403b00:	85 11 00 00 	l.lwz r8,0x0(r17)

    i = 0;
    // send all characters in string to OSD
    while (1)
    {
		if(i==0)	// Render sidestripe
  403b04:	03 ff ff 02 	l.j 40370c <OsdWriteOffset+0x110>
  403b08:	bc 2c 00 00 	l.sfnei r12,0x0
		        //SPI(OSDCMDWRITE | n);
            SPI(OSD_CMD_OSD_WR);
            SPI(0x00); SPI(0x00); SPI(0x00); SPI(n);

		    }
			else if(i<(linelimit-8)) // normal character
  403b0c:	e5 6c 58 00 	l.sfges r12,r11
  403b10:	13 ff fe fe 	l.bf 403708 <OsdWriteOffset+0x10c>
  403b14:	19 60 00 41 	l.movhi r11,0x41
		    {
		        p = &charfont[b][0];
  403b18:	b9 08 00 03 	l.slli r8,r8,0x3
  403b1c:	a9 6b 9b 3c 	l.ori r11,r11,0x9b3c
		        SPI(((*p++<<offset)&stipplemask)^invert);	stipplemask^=stipple;
		        SPI(((*p++<<offset)&stipplemask)^invert);	stipplemask^=stipple;
		        SPI(((*p++<<offset)&stipplemask)^invert);	stipplemask^=stipple;
		        SPI(((*p++<<offset)&stipplemask)^invert);	stipplemask^=stipple;
		        SPI(((*p++<<offset)&stipplemask)^invert);	stipplemask^=stipple;
		        i += 8;
  403b20:	9d 8c 00 08 	l.addi r12,r12,0x8
            SPI(0x00); SPI(0x00); SPI(0x00); SPI(n);

		    }
			else if(i<(linelimit-8)) // normal character
		    {
		        p = &charfont[b][0];
  403b24:	e1 a8 58 00 	l.add r13,r8,r11
		        SPI(((*p++<<offset)&stipplemask)^invert);	stipplemask^=stipple;
		        SPI(((*p++<<offset)&stipplemask)^invert);	stipplemask^=stipple;
		        SPI(((*p++<<offset)&stipplemask)^invert);	stipplemask^=stipple;
		        SPI(((*p++<<offset)&stipplemask)^invert);	stipplemask^=stipple;
		        SPI(((*p++<<offset)&stipplemask)^invert);	stipplemask^=stipple;
		        i += 8;
  403b28:	a5 8c ff ff 	l.andi r12,r12,0xffff

		    }
			else if(i<(linelimit-8)) // normal character
		    {
		        p = &charfont[b][0];
		        SPI(((*p++<<offset)&stipplemask)^invert);	stipplemask^=stipple;
  403b2c:	8d 0d 00 00 	l.lbz r8,0x0(r13)
  403b30:	e1 08 38 08 	l.sll r8,r8,r7
  403b34:	e1 08 a8 03 	l.and r8,r8,r21
  403b38:	e2 b5 30 05 	l.xor r21,r21,r6
  403b3c:	e1 08 28 05 	l.xor r8,r8,r5
  403b40:	d4 11 40 00 	l.sw 0x0(r17),r8
		        SPI(((*p++<<offset)&stipplemask)^invert);	stipplemask^=stipple;
  403b44:	8d 0d 00 01 	l.lbz r8,0x1(r13)
  403b48:	e1 08 38 08 	l.sll r8,r8,r7

		    }
			else if(i<(linelimit-8)) // normal character
		    {
		        p = &charfont[b][0];
		        SPI(((*p++<<offset)&stipplemask)^invert);	stipplemask^=stipple;
  403b4c:	85 71 00 00 	l.lwz r11,0x0(r17)
		        SPI(((*p++<<offset)&stipplemask)^invert);	stipplemask^=stipple;
  403b50:	e1 08 a8 03 	l.and r8,r8,r21
  403b54:	e2 b5 30 05 	l.xor r21,r21,r6
  403b58:	e1 08 28 05 	l.xor r8,r8,r5
  403b5c:	a6 b5 00 ff 	l.andi r21,r21,0xff
  403b60:	d4 11 40 00 	l.sw 0x0(r17),r8
		        SPI(((*p++<<offset)&stipplemask)^invert);	stipplemask^=stipple;
  403b64:	8d 0d 00 02 	l.lbz r8,0x2(r13)
  403b68:	e1 08 38 08 	l.sll r8,r8,r7
		    }
			else if(i<(linelimit-8)) // normal character
		    {
		        p = &charfont[b][0];
		        SPI(((*p++<<offset)&stipplemask)^invert);	stipplemask^=stipple;
		        SPI(((*p++<<offset)&stipplemask)^invert);	stipplemask^=stipple;
  403b6c:	85 71 00 00 	l.lwz r11,0x0(r17)
		        SPI(((*p++<<offset)&stipplemask)^invert);	stipplemask^=stipple;
  403b70:	e1 08 a8 03 	l.and r8,r8,r21
  403b74:	e2 b5 30 05 	l.xor r21,r21,r6
  403b78:	e1 08 28 05 	l.xor r8,r8,r5
  403b7c:	d4 11 40 00 	l.sw 0x0(r17),r8
		        SPI(((*p++<<offset)&stipplemask)^invert);	stipplemask^=stipple;
  403b80:	8d 0d 00 03 	l.lbz r8,0x3(r13)
  403b84:	e1 08 38 08 	l.sll r8,r8,r7
			else if(i<(linelimit-8)) // normal character
		    {
		        p = &charfont[b][0];
		        SPI(((*p++<<offset)&stipplemask)^invert);	stipplemask^=stipple;
		        SPI(((*p++<<offset)&stipplemask)^invert);	stipplemask^=stipple;
		        SPI(((*p++<<offset)&stipplemask)^invert);	stipplemask^=stipple;
  403b88:	85 71 00 00 	l.lwz r11,0x0(r17)
		        SPI(((*p++<<offset)&stipplemask)^invert);	stipplemask^=stipple;
  403b8c:	e1 08 a8 03 	l.and r8,r8,r21
  403b90:	e2 b5 30 05 	l.xor r21,r21,r6
  403b94:	e1 08 28 05 	l.xor r8,r8,r5
  403b98:	a6 b5 00 ff 	l.andi r21,r21,0xff
  403b9c:	d4 11 40 00 	l.sw 0x0(r17),r8
		        SPI(((*p++<<offset)&stipplemask)^invert);	stipplemask^=stipple;
  403ba0:	8d 0d 00 04 	l.lbz r8,0x4(r13)
  403ba4:	e1 08 38 08 	l.sll r8,r8,r7
		    {
		        p = &charfont[b][0];
		        SPI(((*p++<<offset)&stipplemask)^invert);	stipplemask^=stipple;
		        SPI(((*p++<<offset)&stipplemask)^invert);	stipplemask^=stipple;
		        SPI(((*p++<<offset)&stipplemask)^invert);	stipplemask^=stipple;
		        SPI(((*p++<<offset)&stipplemask)^invert);	stipplemask^=stipple;
  403ba8:	85 71 00 00 	l.lwz r11,0x0(r17)
		        SPI(((*p++<<offset)&stipplemask)^invert);	stipplemask^=stipple;
  403bac:	e1 08 a8 03 	l.and r8,r8,r21
  403bb0:	e2 b5 30 05 	l.xor r21,r21,r6
  403bb4:	e1 08 28 05 	l.xor r8,r8,r5
  403bb8:	d4 11 40 00 	l.sw 0x0(r17),r8
		        SPI(((*p++<<offset)&stipplemask)^invert);	stipplemask^=stipple;
  403bbc:	8d 0d 00 05 	l.lbz r8,0x5(r13)
  403bc0:	e1 08 38 08 	l.sll r8,r8,r7
		        p = &charfont[b][0];
		        SPI(((*p++<<offset)&stipplemask)^invert);	stipplemask^=stipple;
		        SPI(((*p++<<offset)&stipplemask)^invert);	stipplemask^=stipple;
		        SPI(((*p++<<offset)&stipplemask)^invert);	stipplemask^=stipple;
		        SPI(((*p++<<offset)&stipplemask)^invert);	stipplemask^=stipple;
		        SPI(((*p++<<offset)&stipplemask)^invert);	stipplemask^=stipple;
  403bc4:	85 71 00 00 	l.lwz r11,0x0(r17)
		        SPI(((*p++<<offset)&stipplemask)^invert);	stipplemask^=stipple;
  403bc8:	9d ad 00 06 	l.addi r13,r13,0x6
  403bcc:	e1 08 a8 03 	l.and r8,r8,r21
  403bd0:	e2 b5 30 05 	l.xor r21,r21,r6
  403bd4:	e1 08 28 05 	l.xor r8,r8,r5
  403bd8:	a6 b5 00 ff 	l.andi r21,r21,0xff
  403bdc:	d4 11 40 00 	l.sw 0x0(r17),r8
		        SPI(((*p++<<offset)&stipplemask)^invert);	stipplemask^=stipple;
  403be0:	8d 0d 00 00 	l.lbz r8,0x0(r13)
  403be4:	e1 08 38 08 	l.sll r8,r8,r7
		        SPI(((*p++<<offset)&stipplemask)^invert);	stipplemask^=stipple;
		        SPI(((*p++<<offset)&stipplemask)^invert);	stipplemask^=stipple;
		        SPI(((*p++<<offset)&stipplemask)^invert);	stipplemask^=stipple;
		        SPI(((*p++<<offset)&stipplemask)^invert);	stipplemask^=stipple;
		        SPI(((*p++<<offset)&stipplemask)^invert);	stipplemask^=stipple;
		        SPI(((*p++<<offset)&stipplemask)^invert);	stipplemask^=stipple;
  403be8:	85 71 00 00 	l.lwz r11,0x0(r17)
		        SPI(((*p++<<offset)&stipplemask)^invert);	stipplemask^=stipple;
  403bec:	e1 08 a8 03 	l.and r8,r8,r21
  403bf0:	e2 b5 30 05 	l.xor r21,r21,r6
  403bf4:	e1 08 28 05 	l.xor r8,r8,r5
  403bf8:	d4 11 40 00 	l.sw 0x0(r17),r8
		        SPI(((*p++<<offset)&stipplemask)^invert);	stipplemask^=stipple;
  403bfc:	8d 0d 00 01 	l.lbz r8,0x1(r13)
  403c00:	e1 08 38 08 	l.sll r8,r8,r7
		        SPI(((*p++<<offset)&stipplemask)^invert);	stipplemask^=stipple;
		        SPI(((*p++<<offset)&stipplemask)^invert);	stipplemask^=stipple;
		        SPI(((*p++<<offset)&stipplemask)^invert);	stipplemask^=stipple;
		        SPI(((*p++<<offset)&stipplemask)^invert);	stipplemask^=stipple;
		        SPI(((*p++<<offset)&stipplemask)^invert);	stipplemask^=stipple;
		        SPI(((*p++<<offset)&stipplemask)^invert);	stipplemask^=stipple;
  403c04:	85 71 00 00 	l.lwz r11,0x0(r17)
		        SPI(((*p++<<offset)&stipplemask)^invert);	stipplemask^=stipple;
  403c08:	e1 08 a8 03 	l.and r8,r8,r21
  403c0c:	e2 b5 30 05 	l.xor r21,r21,r6
  403c10:	e1 08 28 05 	l.xor r8,r8,r5
  403c14:	a6 b5 00 ff 	l.andi r21,r21,0xff
  403c18:	d4 11 40 00 	l.sw 0x0(r17),r8
  403c1c:	85 11 00 00 	l.lwz r8,0x0(r17)

    i = 0;
    // send all characters in string to OSD
    while (1)
    {
		if(i==0)	// Render sidestripe
  403c20:	03 ff fe bb 	l.j 40370c <OsdWriteOffset+0x110>
  403c24:	bc 2c 00 00 	l.sfnei r12,0x0
		        i += 8;
		    }
		}
    }
    for (; i < linelimit; i++) // clear end of line
       SPI(invert);
  403c28:	d4 04 28 00 	l.sw 0x0(r4),r5
		        SPI(((*p++<<offset)&stipplemask)^invert);	stipplemask^=stipple;
		        i += 8;
		    }
		}
    }
    for (; i < linelimit; i++) // clear end of line
  403c2c:	9d 8c 00 01 	l.addi r12,r12,0x1
       SPI(invert);
  403c30:	84 44 00 00 	l.lwz r2,0x0(r4)
		        SPI(((*p++<<offset)&stipplemask)^invert);	stipplemask^=stipple;
		        i += 8;
		    }
		}
    }
    for (; i < linelimit; i++) // clear end of line
  403c34:	00 00 00 04 	l.j 403c44 <OsdWriteOffset+0x648>
  403c38:	a5 8c ff ff 	l.andi r12,r12,0xffff
       SPI(invert);
  403c3c:	18 80 00 80 	l.movhi r4,0x80
  403c40:	a8 84 00 24 	l.ori r4,r4,0x24
		        SPI(((*p++<<offset)&stipplemask)^invert);	stipplemask^=stipple;
		        i += 8;
		    }
		}
    }
    for (; i < linelimit; i++) // clear end of line
  403c44:	e5 8c c8 00 	l.sflts r12,r25
  403c48:	13 ff ff f8 	l.bf 403c28 <OsdWriteOffset+0x62c>
  403c4c:	bc 23 00 07 	l.sfnei r3,0x7
       SPI(invert);
	if(n==7 && (arrowmask & OSD_ARROW_RIGHT))	// Draw final arrow if needed
  403c50:	10 00 00 59 	l.bf 403db4 <OsdWriteOffset+0x7b8>
  403c54:	18 60 00 80 	l.movhi r3,0x80
  403c58:	a4 77 00 02 	l.andi r3,r23,0x2
  403c5c:	bc 03 00 00 	l.sfeqi r3,0x0
  403c60:	10 00 00 54 	l.bf 403db0 <OsdWriteOffset+0x7b4>
